
Seven_Segment_Display_Driver.elf:     file format elf32-littlearm

Sections:
Idx Name          Size      VMA       LMA       File off  Algn
  0 .isr_vector   00000188  08000000  08000000  00001000  2**0
                  CONTENTS, ALLOC, LOAD, READONLY, DATA
  1 .text         000029c0  08000188  08000188  00001188  2**2
                  CONTENTS, ALLOC, LOAD, READONLY, CODE
  2 .rodata       0000001c  08002b48  08002b48  00003b48  2**0
                  CONTENTS, ALLOC, LOAD, READONLY, DATA
  3 .ARM.extab    00000000  08002b64  08002b64  00004014  2**0
                  CONTENTS
  4 .ARM          00000000  08002b64  08002b64  00004014  2**0
                  CONTENTS
  5 .preinit_array 00000000  08002b64  08002b64  00004014  2**0
                  CONTENTS, ALLOC, LOAD, DATA
  6 .init_array   00000004  08002b64  08002b64  00003b64  2**2
                  CONTENTS, ALLOC, LOAD, READONLY, DATA
  7 .fini_array   00000004  08002b68  08002b68  00003b68  2**2
                  CONTENTS, ALLOC, LOAD, READONLY, DATA
  8 .data         00000014  20000000  08002b6c  00004000  2**2
                  CONTENTS, ALLOC, LOAD, DATA
  9 .ccmram       00000000  10000000  10000000  00004014  2**0
                  CONTENTS
 10 .bss          00000190  20000014  20000014  00004014  2**2
                  ALLOC
 11 ._user_heap_stack 00000604  200001a4  200001a4  00004014  2**0
                  ALLOC
 12 .ARM.attributes 00000030  00000000  00000000  00004014  2**0
                  CONTENTS, READONLY
 13 .comment      00000043  00000000  00000000  00004044  2**0
                  CONTENTS, READONLY
 14 .debug_frame  0000002c  00000000  00000000  00004088  2**2
                  CONTENTS, READONLY, DEBUGGING, OCTETS

Disassembly of section .text:

08000188 <__do_global_dtors_aux>:
 8000188:	b510      	push	{r4, lr}
 800018a:	4c05      	ldr	r4, [pc, #20]	@ (80001a0 <__do_global_dtors_aux+0x18>)
 800018c:	7823      	ldrb	r3, [r4, #0]
 800018e:	b933      	cbnz	r3, 800019e <__do_global_dtors_aux+0x16>
 8000190:	4b04      	ldr	r3, [pc, #16]	@ (80001a4 <__do_global_dtors_aux+0x1c>)
 8000192:	b113      	cbz	r3, 800019a <__do_global_dtors_aux+0x12>
 8000194:	4804      	ldr	r0, [pc, #16]	@ (80001a8 <__do_global_dtors_aux+0x20>)
 8000196:	f3af 8000 	nop.w
 800019a:	2301      	movs	r3, #1
 800019c:	7023      	strb	r3, [r4, #0]
 800019e:	bd10      	pop	{r4, pc}
 80001a0:	20000014 	.word	0x20000014
 80001a4:	00000000 	.word	0x00000000
 80001a8:	08002b30 	.word	0x08002b30

080001ac <frame_dummy>:
 80001ac:	b508      	push	{r3, lr}
 80001ae:	4b03      	ldr	r3, [pc, #12]	@ (80001bc <frame_dummy+0x10>)
 80001b0:	b11b      	cbz	r3, 80001ba <frame_dummy+0xe>
 80001b2:	4903      	ldr	r1, [pc, #12]	@ (80001c0 <frame_dummy+0x14>)
 80001b4:	4803      	ldr	r0, [pc, #12]	@ (80001c4 <frame_dummy+0x18>)
 80001b6:	f3af 8000 	nop.w
 80001ba:	bd08      	pop	{r3, pc}
 80001bc:	00000000 	.word	0x00000000
 80001c0:	20000018 	.word	0x20000018
 80001c4:	08002b30 	.word	0x08002b30

080001c8 <__NVIC_EnableIRQ.part.0>:
 80001c8:	4a04      	ldr	r2, [pc, #16]	@ (80001dc <__NVIC_EnableIRQ.part.0+0x14>)
 80001ca:	0941      	lsrs	r1, r0, #5
 80001cc:	2301      	movs	r3, #1
 80001ce:	f000 001f 	and.w	r0, r0, #31
 80001d2:	4083      	lsls	r3, r0
 80001d4:	f842 3021 	str.w	r3, [r2, r1, lsl #2]
 80001d8:	4770      	bx	lr
 80001da:	bf00      	nop
 80001dc:	e000e100 	.word	0xe000e100

080001e0 <DMA1_Stream0_IRQHandler>:
 80001e0:	b570      	push	{r4, r5, r6, lr}
 80001e2:	4d37      	ldr	r5, [pc, #220]	@ (80002c0 <DMA1_Stream0_IRQHandler+0xe0>)
 80001e4:	4c37      	ldr	r4, [pc, #220]	@ (80002c4 <DMA1_Stream0_IRQHandler+0xe4>)
 80001e6:	682b      	ldr	r3, [r5, #0]
 80001e8:	6023      	str	r3, [r4, #0]
 80001ea:	6823      	ldr	r3, [r4, #0]
 80001ec:	07db      	lsls	r3, r3, #31
 80001ee:	d50b      	bpl.n	8000208 <DMA1_Stream0_IRQHandler+0x28>
 80001f0:	4b35      	ldr	r3, [pc, #212]	@ (80002c8 <DMA1_Stream0_IRQHandler+0xe8>)
 80001f2:	681b      	ldr	r3, [r3, #0]
 80001f4:	69da      	ldr	r2, [r3, #28]
 80001f6:	0616      	lsls	r6, r2, #24
 80001f8:	d506      	bpl.n	8000208 <DMA1_Stream0_IRQHandler+0x28>
 80001fa:	6bdb      	ldr	r3, [r3, #60]	@ 0x3c
 80001fc:	b123      	cbz	r3, 8000208 <DMA1_Stream0_IRQHandler+0x28>
 80001fe:	4798      	blx	r3
 8000200:	68ab      	ldr	r3, [r5, #8]
 8000202:	f043 0301 	orr.w	r3, r3, #1
 8000206:	60ab      	str	r3, [r5, #8]
 8000208:	6823      	ldr	r3, [r4, #0]
 800020a:	075d      	lsls	r5, r3, #29
 800020c:	d50c      	bpl.n	8000228 <DMA1_Stream0_IRQHandler+0x48>
 800020e:	4b2e      	ldr	r3, [pc, #184]	@ (80002c8 <DMA1_Stream0_IRQHandler+0xe8>)
 8000210:	681b      	ldr	r3, [r3, #0]
 8000212:	69da      	ldr	r2, [r3, #28]
 8000214:	0790      	lsls	r0, r2, #30
 8000216:	d507      	bpl.n	8000228 <DMA1_Stream0_IRQHandler+0x48>
 8000218:	6c1b      	ldr	r3, [r3, #64]	@ 0x40
 800021a:	b12b      	cbz	r3, 8000228 <DMA1_Stream0_IRQHandler+0x48>
 800021c:	4798      	blx	r3
 800021e:	4a28      	ldr	r2, [pc, #160]	@ (80002c0 <DMA1_Stream0_IRQHandler+0xe0>)
 8000220:	6893      	ldr	r3, [r2, #8]
 8000222:	f043 0304 	orr.w	r3, r3, #4
 8000226:	6093      	str	r3, [r2, #8]
 8000228:	6823      	ldr	r3, [r4, #0]
 800022a:	0719      	lsls	r1, r3, #28
 800022c:	d50c      	bpl.n	8000248 <DMA1_Stream0_IRQHandler+0x68>
 800022e:	4b26      	ldr	r3, [pc, #152]	@ (80002c8 <DMA1_Stream0_IRQHandler+0xe8>)
 8000230:	681b      	ldr	r3, [r3, #0]
 8000232:	69da      	ldr	r2, [r3, #28]
 8000234:	0752      	lsls	r2, r2, #29
 8000236:	d507      	bpl.n	8000248 <DMA1_Stream0_IRQHandler+0x68>
 8000238:	6c5b      	ldr	r3, [r3, #68]	@ 0x44
 800023a:	b12b      	cbz	r3, 8000248 <DMA1_Stream0_IRQHandler+0x68>
 800023c:	4798      	blx	r3
 800023e:	4a20      	ldr	r2, [pc, #128]	@ (80002c0 <DMA1_Stream0_IRQHandler+0xe0>)
 8000240:	6893      	ldr	r3, [r2, #8]
 8000242:	f043 0308 	orr.w	r3, r3, #8
 8000246:	6093      	str	r3, [r2, #8]
 8000248:	6823      	ldr	r3, [r4, #0]
 800024a:	06db      	lsls	r3, r3, #27
 800024c:	d518      	bpl.n	8000280 <DMA1_Stream0_IRQHandler+0xa0>
 800024e:	4d1e      	ldr	r5, [pc, #120]	@ (80002c8 <DMA1_Stream0_IRQHandler+0xe8>)
 8000250:	682b      	ldr	r3, [r5, #0]
 8000252:	69da      	ldr	r2, [r3, #28]
 8000254:	0716      	lsls	r6, r2, #28
 8000256:	d513      	bpl.n	8000280 <DMA1_Stream0_IRQHandler+0xa0>
 8000258:	6c9b      	ldr	r3, [r3, #72]	@ 0x48
 800025a:	b18b      	cbz	r3, 8000280 <DMA1_Stream0_IRQHandler+0xa0>
 800025c:	4798      	blx	r3
 800025e:	4a18      	ldr	r2, [pc, #96]	@ (80002c0 <DMA1_Stream0_IRQHandler+0xe0>)
 8000260:	6893      	ldr	r3, [r2, #8]
 8000262:	f043 0310 	orr.w	r3, r3, #16
 8000266:	6093      	str	r3, [r2, #8]
 8000268:	682b      	ldr	r3, [r5, #0]
 800026a:	6b9a      	ldr	r2, [r3, #56]	@ 0x38
 800026c:	f5b2 2f80 	cmp.w	r2, #262144	@ 0x40000
 8000270:	d106      	bne.n	8000280 <DMA1_Stream0_IRQHandler+0xa0>
 8000272:	685a      	ldr	r2, [r3, #4]
 8000274:	6812      	ldr	r2, [r2, #0]
 8000276:	0355      	lsls	r5, r2, #13
 8000278:	bf4c      	ite	mi
 800027a:	6d1b      	ldrmi	r3, [r3, #80]	@ 0x50
 800027c:	6d5b      	ldrpl	r3, [r3, #84]	@ 0x54
 800027e:	4798      	blx	r3
 8000280:	6823      	ldr	r3, [r4, #0]
 8000282:	0698      	lsls	r0, r3, #26
 8000284:	d51b      	bpl.n	80002be <DMA1_Stream0_IRQHandler+0xde>
 8000286:	4c10      	ldr	r4, [pc, #64]	@ (80002c8 <DMA1_Stream0_IRQHandler+0xe8>)
 8000288:	6823      	ldr	r3, [r4, #0]
 800028a:	69da      	ldr	r2, [r3, #28]
 800028c:	06d1      	lsls	r1, r2, #27
 800028e:	d516      	bpl.n	80002be <DMA1_Stream0_IRQHandler+0xde>
 8000290:	6cda      	ldr	r2, [r3, #76]	@ 0x4c
 8000292:	b1a2      	cbz	r2, 80002be <DMA1_Stream0_IRQHandler+0xde>
 8000294:	6c9b      	ldr	r3, [r3, #72]	@ 0x48
 8000296:	4798      	blx	r3
 8000298:	4a09      	ldr	r2, [pc, #36]	@ (80002c0 <DMA1_Stream0_IRQHandler+0xe0>)
 800029a:	6893      	ldr	r3, [r2, #8]
 800029c:	f043 0320 	orr.w	r3, r3, #32
 80002a0:	6093      	str	r3, [r2, #8]
 80002a2:	6823      	ldr	r3, [r4, #0]
 80002a4:	6b9a      	ldr	r2, [r3, #56]	@ 0x38
 80002a6:	f5b2 2f80 	cmp.w	r2, #262144	@ 0x40000
 80002aa:	d108      	bne.n	80002be <DMA1_Stream0_IRQHandler+0xde>
 80002ac:	685a      	ldr	r2, [r3, #4]
 80002ae:	6812      	ldr	r2, [r2, #0]
 80002b0:	0352      	lsls	r2, r2, #13
 80002b2:	e8bd 4070 	ldmia.w	sp!, {r4, r5, r6, lr}
 80002b6:	bf4c      	ite	mi
 80002b8:	6d1b      	ldrmi	r3, [r3, #80]	@ 0x50
 80002ba:	6d5b      	ldrpl	r3, [r3, #84]	@ 0x54
 80002bc:	4718      	bx	r3
 80002be:	bd70      	pop	{r4, r5, r6, pc}
 80002c0:	40026000 	.word	0x40026000
 80002c4:	20000034 	.word	0x20000034
 80002c8:	20000074 	.word	0x20000074

080002cc <DMA1_Stream1_IRQHandler>:
 80002cc:	b570      	push	{r4, r5, r6, lr}
 80002ce:	4d30      	ldr	r5, [pc, #192]	@ (8000390 <DMA1_Stream1_IRQHandler+0xc4>)
 80002d0:	4c30      	ldr	r4, [pc, #192]	@ (8000394 <DMA1_Stream1_IRQHandler+0xc8>)
 80002d2:	682b      	ldr	r3, [r5, #0]
 80002d4:	6023      	str	r3, [r4, #0]
 80002d6:	6823      	ldr	r3, [r4, #0]
 80002d8:	065a      	lsls	r2, r3, #25
 80002da:	d508      	bpl.n	80002ee <DMA1_Stream1_IRQHandler+0x22>
 80002dc:	4b2e      	ldr	r3, [pc, #184]	@ (8000398 <DMA1_Stream1_IRQHandler+0xcc>)
 80002de:	681b      	ldr	r3, [r3, #0]
 80002e0:	6bdb      	ldr	r3, [r3, #60]	@ 0x3c
 80002e2:	b123      	cbz	r3, 80002ee <DMA1_Stream1_IRQHandler+0x22>
 80002e4:	4798      	blx	r3
 80002e6:	68ab      	ldr	r3, [r5, #8]
 80002e8:	f043 0340 	orr.w	r3, r3, #64	@ 0x40
 80002ec:	60ab      	str	r3, [r5, #8]
 80002ee:	6823      	ldr	r3, [r4, #0]
 80002f0:	05db      	lsls	r3, r3, #23
 80002f2:	d509      	bpl.n	8000308 <DMA1_Stream1_IRQHandler+0x3c>
 80002f4:	4b28      	ldr	r3, [pc, #160]	@ (8000398 <DMA1_Stream1_IRQHandler+0xcc>)
 80002f6:	681b      	ldr	r3, [r3, #0]
 80002f8:	6c1b      	ldr	r3, [r3, #64]	@ 0x40
 80002fa:	b12b      	cbz	r3, 8000308 <DMA1_Stream1_IRQHandler+0x3c>
 80002fc:	4798      	blx	r3
 80002fe:	4a24      	ldr	r2, [pc, #144]	@ (8000390 <DMA1_Stream1_IRQHandler+0xc4>)
 8000300:	6893      	ldr	r3, [r2, #8]
 8000302:	f443 7380 	orr.w	r3, r3, #256	@ 0x100
 8000306:	6093      	str	r3, [r2, #8]
 8000308:	6823      	ldr	r3, [r4, #0]
 800030a:	059e      	lsls	r6, r3, #22
 800030c:	d509      	bpl.n	8000322 <DMA1_Stream1_IRQHandler+0x56>
 800030e:	4b22      	ldr	r3, [pc, #136]	@ (8000398 <DMA1_Stream1_IRQHandler+0xcc>)
 8000310:	681b      	ldr	r3, [r3, #0]
 8000312:	6c5b      	ldr	r3, [r3, #68]	@ 0x44
 8000314:	b12b      	cbz	r3, 8000322 <DMA1_Stream1_IRQHandler+0x56>
 8000316:	4798      	blx	r3
 8000318:	4a1d      	ldr	r2, [pc, #116]	@ (8000390 <DMA1_Stream1_IRQHandler+0xc4>)
 800031a:	6893      	ldr	r3, [r2, #8]
 800031c:	f443 7300 	orr.w	r3, r3, #512	@ 0x200
 8000320:	6093      	str	r3, [r2, #8]
 8000322:	6823      	ldr	r3, [r4, #0]
 8000324:	055d      	lsls	r5, r3, #21
 8000326:	d515      	bpl.n	8000354 <DMA1_Stream1_IRQHandler+0x88>
 8000328:	4d1b      	ldr	r5, [pc, #108]	@ (8000398 <DMA1_Stream1_IRQHandler+0xcc>)
 800032a:	682b      	ldr	r3, [r5, #0]
 800032c:	6c9b      	ldr	r3, [r3, #72]	@ 0x48
 800032e:	b18b      	cbz	r3, 8000354 <DMA1_Stream1_IRQHandler+0x88>
 8000330:	4798      	blx	r3
 8000332:	4a17      	ldr	r2, [pc, #92]	@ (8000390 <DMA1_Stream1_IRQHandler+0xc4>)
 8000334:	6893      	ldr	r3, [r2, #8]
 8000336:	f443 6380 	orr.w	r3, r3, #1024	@ 0x400
 800033a:	6093      	str	r3, [r2, #8]
 800033c:	682b      	ldr	r3, [r5, #0]
 800033e:	6b9a      	ldr	r2, [r3, #56]	@ 0x38
 8000340:	f5b2 2f80 	cmp.w	r2, #262144	@ 0x40000
 8000344:	d106      	bne.n	8000354 <DMA1_Stream1_IRQHandler+0x88>
 8000346:	685a      	ldr	r2, [r3, #4]
 8000348:	6812      	ldr	r2, [r2, #0]
 800034a:	0350      	lsls	r0, r2, #13
 800034c:	bf4c      	ite	mi
 800034e:	6d1b      	ldrmi	r3, [r3, #80]	@ 0x50
 8000350:	6d5b      	ldrpl	r3, [r3, #84]	@ 0x54
 8000352:	4798      	blx	r3
 8000354:	6823      	ldr	r3, [r4, #0]
 8000356:	0519      	lsls	r1, r3, #20
 8000358:	d518      	bpl.n	800038c <DMA1_Stream1_IRQHandler+0xc0>
 800035a:	4c0f      	ldr	r4, [pc, #60]	@ (8000398 <DMA1_Stream1_IRQHandler+0xcc>)
 800035c:	6823      	ldr	r3, [r4, #0]
 800035e:	6cda      	ldr	r2, [r3, #76]	@ 0x4c
 8000360:	b1a2      	cbz	r2, 800038c <DMA1_Stream1_IRQHandler+0xc0>
 8000362:	6c9b      	ldr	r3, [r3, #72]	@ 0x48
 8000364:	4798      	blx	r3
 8000366:	4a0a      	ldr	r2, [pc, #40]	@ (8000390 <DMA1_Stream1_IRQHandler+0xc4>)
 8000368:	6893      	ldr	r3, [r2, #8]
 800036a:	f443 6300 	orr.w	r3, r3, #2048	@ 0x800
 800036e:	6093      	str	r3, [r2, #8]
 8000370:	6823      	ldr	r3, [r4, #0]
 8000372:	6b9a      	ldr	r2, [r3, #56]	@ 0x38
 8000374:	f5b2 2f80 	cmp.w	r2, #262144	@ 0x40000
 8000378:	d108      	bne.n	800038c <DMA1_Stream1_IRQHandler+0xc0>
 800037a:	685a      	ldr	r2, [r3, #4]
 800037c:	6812      	ldr	r2, [r2, #0]
 800037e:	0352      	lsls	r2, r2, #13
 8000380:	e8bd 4070 	ldmia.w	sp!, {r4, r5, r6, lr}
 8000384:	bf4c      	ite	mi
 8000386:	6d1b      	ldrmi	r3, [r3, #80]	@ 0x50
 8000388:	6d5b      	ldrpl	r3, [r3, #84]	@ 0x54
 800038a:	4718      	bx	r3
 800038c:	bd70      	pop	{r4, r5, r6, pc}
 800038e:	bf00      	nop
 8000390:	40026000 	.word	0x40026000
 8000394:	20000034 	.word	0x20000034
 8000398:	20000070 	.word	0x20000070

0800039c <DMA1_Stream2_IRQHandler>:
 800039c:	b570      	push	{r4, r5, r6, lr}
 800039e:	4d30      	ldr	r5, [pc, #192]	@ (8000460 <DMA1_Stream2_IRQHandler+0xc4>)
 80003a0:	4c30      	ldr	r4, [pc, #192]	@ (8000464 <DMA1_Stream2_IRQHandler+0xc8>)
 80003a2:	682b      	ldr	r3, [r5, #0]
 80003a4:	6023      	str	r3, [r4, #0]
 80003a6:	6823      	ldr	r3, [r4, #0]
 80003a8:	03da      	lsls	r2, r3, #15
 80003aa:	d508      	bpl.n	80003be <DMA1_Stream2_IRQHandler+0x22>
 80003ac:	4b2e      	ldr	r3, [pc, #184]	@ (8000468 <DMA1_Stream2_IRQHandler+0xcc>)
 80003ae:	681b      	ldr	r3, [r3, #0]
 80003b0:	6bdb      	ldr	r3, [r3, #60]	@ 0x3c
 80003b2:	b123      	cbz	r3, 80003be <DMA1_Stream2_IRQHandler+0x22>
 80003b4:	4798      	blx	r3
 80003b6:	68ab      	ldr	r3, [r5, #8]
 80003b8:	f443 3380 	orr.w	r3, r3, #65536	@ 0x10000
 80003bc:	60ab      	str	r3, [r5, #8]
 80003be:	6823      	ldr	r3, [r4, #0]
 80003c0:	035b      	lsls	r3, r3, #13
 80003c2:	d509      	bpl.n	80003d8 <DMA1_Stream2_IRQHandler+0x3c>
 80003c4:	4b28      	ldr	r3, [pc, #160]	@ (8000468 <DMA1_Stream2_IRQHandler+0xcc>)
 80003c6:	681b      	ldr	r3, [r3, #0]
 80003c8:	6c1b      	ldr	r3, [r3, #64]	@ 0x40
 80003ca:	b12b      	cbz	r3, 80003d8 <DMA1_Stream2_IRQHandler+0x3c>
 80003cc:	4798      	blx	r3
 80003ce:	4a24      	ldr	r2, [pc, #144]	@ (8000460 <DMA1_Stream2_IRQHandler+0xc4>)
 80003d0:	6893      	ldr	r3, [r2, #8]
 80003d2:	f443 2380 	orr.w	r3, r3, #262144	@ 0x40000
 80003d6:	6093      	str	r3, [r2, #8]
 80003d8:	6823      	ldr	r3, [r4, #0]
 80003da:	031e      	lsls	r6, r3, #12
 80003dc:	d509      	bpl.n	80003f2 <DMA1_Stream2_IRQHandler+0x56>
 80003de:	4b22      	ldr	r3, [pc, #136]	@ (8000468 <DMA1_Stream2_IRQHandler+0xcc>)
 80003e0:	681b      	ldr	r3, [r3, #0]
 80003e2:	6c5b      	ldr	r3, [r3, #68]	@ 0x44
 80003e4:	b12b      	cbz	r3, 80003f2 <DMA1_Stream2_IRQHandler+0x56>
 80003e6:	4798      	blx	r3
 80003e8:	4a1d      	ldr	r2, [pc, #116]	@ (8000460 <DMA1_Stream2_IRQHandler+0xc4>)
 80003ea:	6893      	ldr	r3, [r2, #8]
 80003ec:	f443 2300 	orr.w	r3, r3, #524288	@ 0x80000
 80003f0:	6093      	str	r3, [r2, #8]
 80003f2:	6823      	ldr	r3, [r4, #0]
 80003f4:	02dd      	lsls	r5, r3, #11
 80003f6:	d515      	bpl.n	8000424 <DMA1_Stream2_IRQHandler+0x88>
 80003f8:	4d1b      	ldr	r5, [pc, #108]	@ (8000468 <DMA1_Stream2_IRQHandler+0xcc>)
 80003fa:	682b      	ldr	r3, [r5, #0]
 80003fc:	6c9b      	ldr	r3, [r3, #72]	@ 0x48
 80003fe:	b18b      	cbz	r3, 8000424 <DMA1_Stream2_IRQHandler+0x88>
 8000400:	4798      	blx	r3
 8000402:	4a17      	ldr	r2, [pc, #92]	@ (8000460 <DMA1_Stream2_IRQHandler+0xc4>)
 8000404:	6893      	ldr	r3, [r2, #8]
 8000406:	f443 1380 	orr.w	r3, r3, #1048576	@ 0x100000
 800040a:	6093      	str	r3, [r2, #8]
 800040c:	682b      	ldr	r3, [r5, #0]
 800040e:	6b9a      	ldr	r2, [r3, #56]	@ 0x38
 8000410:	f5b2 2f80 	cmp.w	r2, #262144	@ 0x40000
 8000414:	d106      	bne.n	8000424 <DMA1_Stream2_IRQHandler+0x88>
 8000416:	685a      	ldr	r2, [r3, #4]
 8000418:	6812      	ldr	r2, [r2, #0]
 800041a:	0350      	lsls	r0, r2, #13
 800041c:	bf4c      	ite	mi
 800041e:	6d1b      	ldrmi	r3, [r3, #80]	@ 0x50
 8000420:	6d5b      	ldrpl	r3, [r3, #84]	@ 0x54
 8000422:	4798      	blx	r3
 8000424:	6823      	ldr	r3, [r4, #0]
 8000426:	0299      	lsls	r1, r3, #10
 8000428:	d518      	bpl.n	800045c <DMA1_Stream2_IRQHandler+0xc0>
 800042a:	4c0f      	ldr	r4, [pc, #60]	@ (8000468 <DMA1_Stream2_IRQHandler+0xcc>)
 800042c:	6823      	ldr	r3, [r4, #0]
 800042e:	6cda      	ldr	r2, [r3, #76]	@ 0x4c
 8000430:	b1a2      	cbz	r2, 800045c <DMA1_Stream2_IRQHandler+0xc0>
 8000432:	6c9b      	ldr	r3, [r3, #72]	@ 0x48
 8000434:	4798      	blx	r3
 8000436:	4a0a      	ldr	r2, [pc, #40]	@ (8000460 <DMA1_Stream2_IRQHandler+0xc4>)
 8000438:	6893      	ldr	r3, [r2, #8]
 800043a:	f443 1300 	orr.w	r3, r3, #2097152	@ 0x200000
 800043e:	6093      	str	r3, [r2, #8]
 8000440:	6823      	ldr	r3, [r4, #0]
 8000442:	6b9a      	ldr	r2, [r3, #56]	@ 0x38
 8000444:	f5b2 2f80 	cmp.w	r2, #262144	@ 0x40000
 8000448:	d108      	bne.n	800045c <DMA1_Stream2_IRQHandler+0xc0>
 800044a:	685a      	ldr	r2, [r3, #4]
 800044c:	6812      	ldr	r2, [r2, #0]
 800044e:	0352      	lsls	r2, r2, #13
 8000450:	e8bd 4070 	ldmia.w	sp!, {r4, r5, r6, lr}
 8000454:	bf4c      	ite	mi
 8000456:	6d1b      	ldrmi	r3, [r3, #80]	@ 0x50
 8000458:	6d5b      	ldrpl	r3, [r3, #84]	@ 0x54
 800045a:	4718      	bx	r3
 800045c:	bd70      	pop	{r4, r5, r6, pc}
 800045e:	bf00      	nop
 8000460:	40026000 	.word	0x40026000
 8000464:	20000034 	.word	0x20000034
 8000468:	2000006c 	.word	0x2000006c

0800046c <DMA1_Stream3_IRQHandler>:
 800046c:	b570      	push	{r4, r5, r6, lr}
 800046e:	4d30      	ldr	r5, [pc, #192]	@ (8000530 <DMA1_Stream3_IRQHandler+0xc4>)
 8000470:	4c30      	ldr	r4, [pc, #192]	@ (8000534 <DMA1_Stream3_IRQHandler+0xc8>)
 8000472:	682b      	ldr	r3, [r5, #0]
 8000474:	6023      	str	r3, [r4, #0]
 8000476:	6823      	ldr	r3, [r4, #0]
 8000478:	025a      	lsls	r2, r3, #9
 800047a:	d508      	bpl.n	800048e <DMA1_Stream3_IRQHandler+0x22>
 800047c:	4b2e      	ldr	r3, [pc, #184]	@ (8000538 <DMA1_Stream3_IRQHandler+0xcc>)
 800047e:	681b      	ldr	r3, [r3, #0]
 8000480:	6bdb      	ldr	r3, [r3, #60]	@ 0x3c
 8000482:	b123      	cbz	r3, 800048e <DMA1_Stream3_IRQHandler+0x22>
 8000484:	4798      	blx	r3
 8000486:	68ab      	ldr	r3, [r5, #8]
 8000488:	f443 0380 	orr.w	r3, r3, #4194304	@ 0x400000
 800048c:	60ab      	str	r3, [r5, #8]
 800048e:	6823      	ldr	r3, [r4, #0]
 8000490:	01db      	lsls	r3, r3, #7
 8000492:	d509      	bpl.n	80004a8 <DMA1_Stream3_IRQHandler+0x3c>
 8000494:	4b28      	ldr	r3, [pc, #160]	@ (8000538 <DMA1_Stream3_IRQHandler+0xcc>)
 8000496:	681b      	ldr	r3, [r3, #0]
 8000498:	6c1b      	ldr	r3, [r3, #64]	@ 0x40
 800049a:	b12b      	cbz	r3, 80004a8 <DMA1_Stream3_IRQHandler+0x3c>
 800049c:	4798      	blx	r3
 800049e:	4a24      	ldr	r2, [pc, #144]	@ (8000530 <DMA1_Stream3_IRQHandler+0xc4>)
 80004a0:	6893      	ldr	r3, [r2, #8]
 80004a2:	f043 7380 	orr.w	r3, r3, #16777216	@ 0x1000000
 80004a6:	6093      	str	r3, [r2, #8]
 80004a8:	6823      	ldr	r3, [r4, #0]
 80004aa:	019e      	lsls	r6, r3, #6
 80004ac:	d509      	bpl.n	80004c2 <DMA1_Stream3_IRQHandler+0x56>
 80004ae:	4b22      	ldr	r3, [pc, #136]	@ (8000538 <DMA1_Stream3_IRQHandler+0xcc>)
 80004b0:	681b      	ldr	r3, [r3, #0]
 80004b2:	6c5b      	ldr	r3, [r3, #68]	@ 0x44
 80004b4:	b12b      	cbz	r3, 80004c2 <DMA1_Stream3_IRQHandler+0x56>
 80004b6:	4798      	blx	r3
 80004b8:	4a1d      	ldr	r2, [pc, #116]	@ (8000530 <DMA1_Stream3_IRQHandler+0xc4>)
 80004ba:	6893      	ldr	r3, [r2, #8]
 80004bc:	f043 7300 	orr.w	r3, r3, #33554432	@ 0x2000000
 80004c0:	6093      	str	r3, [r2, #8]
 80004c2:	6823      	ldr	r3, [r4, #0]
 80004c4:	015d      	lsls	r5, r3, #5
 80004c6:	d515      	bpl.n	80004f4 <DMA1_Stream3_IRQHandler+0x88>
 80004c8:	4d1b      	ldr	r5, [pc, #108]	@ (8000538 <DMA1_Stream3_IRQHandler+0xcc>)
 80004ca:	682b      	ldr	r3, [r5, #0]
 80004cc:	6c9b      	ldr	r3, [r3, #72]	@ 0x48
 80004ce:	b18b      	cbz	r3, 80004f4 <DMA1_Stream3_IRQHandler+0x88>
 80004d0:	4798      	blx	r3
 80004d2:	4a17      	ldr	r2, [pc, #92]	@ (8000530 <DMA1_Stream3_IRQHandler+0xc4>)
 80004d4:	6893      	ldr	r3, [r2, #8]
 80004d6:	f043 6380 	orr.w	r3, r3, #67108864	@ 0x4000000
 80004da:	6093      	str	r3, [r2, #8]
 80004dc:	682b      	ldr	r3, [r5, #0]
 80004de:	6b9a      	ldr	r2, [r3, #56]	@ 0x38
 80004e0:	f5b2 2f80 	cmp.w	r2, #262144	@ 0x40000
 80004e4:	d106      	bne.n	80004f4 <DMA1_Stream3_IRQHandler+0x88>
 80004e6:	685a      	ldr	r2, [r3, #4]
 80004e8:	6812      	ldr	r2, [r2, #0]
 80004ea:	0350      	lsls	r0, r2, #13
 80004ec:	bf4c      	ite	mi
 80004ee:	6d1b      	ldrmi	r3, [r3, #80]	@ 0x50
 80004f0:	6d5b      	ldrpl	r3, [r3, #84]	@ 0x54
 80004f2:	4798      	blx	r3
 80004f4:	6823      	ldr	r3, [r4, #0]
 80004f6:	0119      	lsls	r1, r3, #4
 80004f8:	d518      	bpl.n	800052c <DMA1_Stream3_IRQHandler+0xc0>
 80004fa:	4c0f      	ldr	r4, [pc, #60]	@ (8000538 <DMA1_Stream3_IRQHandler+0xcc>)
 80004fc:	6823      	ldr	r3, [r4, #0]
 80004fe:	6cda      	ldr	r2, [r3, #76]	@ 0x4c
 8000500:	b1a2      	cbz	r2, 800052c <DMA1_Stream3_IRQHandler+0xc0>
 8000502:	6c9b      	ldr	r3, [r3, #72]	@ 0x48
 8000504:	4798      	blx	r3
 8000506:	4a0a      	ldr	r2, [pc, #40]	@ (8000530 <DMA1_Stream3_IRQHandler+0xc4>)
 8000508:	6893      	ldr	r3, [r2, #8]
 800050a:	f043 6300 	orr.w	r3, r3, #134217728	@ 0x8000000
 800050e:	6093      	str	r3, [r2, #8]
 8000510:	6823      	ldr	r3, [r4, #0]
 8000512:	6b9a      	ldr	r2, [r3, #56]	@ 0x38
 8000514:	f5b2 2f80 	cmp.w	r2, #262144	@ 0x40000
 8000518:	d108      	bne.n	800052c <DMA1_Stream3_IRQHandler+0xc0>
 800051a:	685a      	ldr	r2, [r3, #4]
 800051c:	6812      	ldr	r2, [r2, #0]
 800051e:	0352      	lsls	r2, r2, #13
 8000520:	e8bd 4070 	ldmia.w	sp!, {r4, r5, r6, lr}
 8000524:	bf4c      	ite	mi
 8000526:	6d1b      	ldrmi	r3, [r3, #80]	@ 0x50
 8000528:	6d5b      	ldrpl	r3, [r3, #84]	@ 0x54
 800052a:	4718      	bx	r3
 800052c:	bd70      	pop	{r4, r5, r6, pc}
 800052e:	bf00      	nop
 8000530:	40026000 	.word	0x40026000
 8000534:	20000034 	.word	0x20000034
 8000538:	20000068 	.word	0x20000068

0800053c <DMA1_Stream4_IRQHandler>:
 800053c:	b570      	push	{r4, r5, r6, lr}
 800053e:	4d30      	ldr	r5, [pc, #192]	@ (8000600 <DMA1_Stream4_IRQHandler+0xc4>)
 8000540:	4c30      	ldr	r4, [pc, #192]	@ (8000604 <DMA1_Stream4_IRQHandler+0xc8>)
 8000542:	686b      	ldr	r3, [r5, #4]
 8000544:	6023      	str	r3, [r4, #0]
 8000546:	6823      	ldr	r3, [r4, #0]
 8000548:	07da      	lsls	r2, r3, #31
 800054a:	d508      	bpl.n	800055e <DMA1_Stream4_IRQHandler+0x22>
 800054c:	4b2e      	ldr	r3, [pc, #184]	@ (8000608 <DMA1_Stream4_IRQHandler+0xcc>)
 800054e:	681b      	ldr	r3, [r3, #0]
 8000550:	6bdb      	ldr	r3, [r3, #60]	@ 0x3c
 8000552:	b123      	cbz	r3, 800055e <DMA1_Stream4_IRQHandler+0x22>
 8000554:	4798      	blx	r3
 8000556:	68ab      	ldr	r3, [r5, #8]
 8000558:	f043 0340 	orr.w	r3, r3, #64	@ 0x40
 800055c:	60ab      	str	r3, [r5, #8]
 800055e:	6823      	ldr	r3, [r4, #0]
 8000560:	075b      	lsls	r3, r3, #29
 8000562:	d509      	bpl.n	8000578 <DMA1_Stream4_IRQHandler+0x3c>
 8000564:	4b28      	ldr	r3, [pc, #160]	@ (8000608 <DMA1_Stream4_IRQHandler+0xcc>)
 8000566:	681b      	ldr	r3, [r3, #0]
 8000568:	6c1b      	ldr	r3, [r3, #64]	@ 0x40
 800056a:	b12b      	cbz	r3, 8000578 <DMA1_Stream4_IRQHandler+0x3c>
 800056c:	4798      	blx	r3
 800056e:	4a24      	ldr	r2, [pc, #144]	@ (8000600 <DMA1_Stream4_IRQHandler+0xc4>)
 8000570:	68d3      	ldr	r3, [r2, #12]
 8000572:	f043 0304 	orr.w	r3, r3, #4
 8000576:	60d3      	str	r3, [r2, #12]
 8000578:	6823      	ldr	r3, [r4, #0]
 800057a:	071e      	lsls	r6, r3, #28
 800057c:	d509      	bpl.n	8000592 <DMA1_Stream4_IRQHandler+0x56>
 800057e:	4b22      	ldr	r3, [pc, #136]	@ (8000608 <DMA1_Stream4_IRQHandler+0xcc>)
 8000580:	681b      	ldr	r3, [r3, #0]
 8000582:	6c5b      	ldr	r3, [r3, #68]	@ 0x44
 8000584:	b12b      	cbz	r3, 8000592 <DMA1_Stream4_IRQHandler+0x56>
 8000586:	4798      	blx	r3
 8000588:	4a1d      	ldr	r2, [pc, #116]	@ (8000600 <DMA1_Stream4_IRQHandler+0xc4>)
 800058a:	68d3      	ldr	r3, [r2, #12]
 800058c:	f043 0308 	orr.w	r3, r3, #8
 8000590:	60d3      	str	r3, [r2, #12]
 8000592:	6823      	ldr	r3, [r4, #0]
 8000594:	06dd      	lsls	r5, r3, #27
 8000596:	d515      	bpl.n	80005c4 <DMA1_Stream4_IRQHandler+0x88>
 8000598:	4d1b      	ldr	r5, [pc, #108]	@ (8000608 <DMA1_Stream4_IRQHandler+0xcc>)
 800059a:	682b      	ldr	r3, [r5, #0]
 800059c:	6c9b      	ldr	r3, [r3, #72]	@ 0x48
 800059e:	b18b      	cbz	r3, 80005c4 <DMA1_Stream4_IRQHandler+0x88>
 80005a0:	4798      	blx	r3
 80005a2:	4a17      	ldr	r2, [pc, #92]	@ (8000600 <DMA1_Stream4_IRQHandler+0xc4>)
 80005a4:	68d3      	ldr	r3, [r2, #12]
 80005a6:	f043 0310 	orr.w	r3, r3, #16
 80005aa:	60d3      	str	r3, [r2, #12]
 80005ac:	682b      	ldr	r3, [r5, #0]
 80005ae:	6b9a      	ldr	r2, [r3, #56]	@ 0x38
 80005b0:	f5b2 2f80 	cmp.w	r2, #262144	@ 0x40000
 80005b4:	d106      	bne.n	80005c4 <DMA1_Stream4_IRQHandler+0x88>
 80005b6:	685a      	ldr	r2, [r3, #4]
 80005b8:	6812      	ldr	r2, [r2, #0]
 80005ba:	0350      	lsls	r0, r2, #13
 80005bc:	bf4c      	ite	mi
 80005be:	6d1b      	ldrmi	r3, [r3, #80]	@ 0x50
 80005c0:	6d5b      	ldrpl	r3, [r3, #84]	@ 0x54
 80005c2:	4798      	blx	r3
 80005c4:	6823      	ldr	r3, [r4, #0]
 80005c6:	0699      	lsls	r1, r3, #26
 80005c8:	d518      	bpl.n	80005fc <DMA1_Stream4_IRQHandler+0xc0>
 80005ca:	4c0f      	ldr	r4, [pc, #60]	@ (8000608 <DMA1_Stream4_IRQHandler+0xcc>)
 80005cc:	6823      	ldr	r3, [r4, #0]
 80005ce:	6cda      	ldr	r2, [r3, #76]	@ 0x4c
 80005d0:	b1a2      	cbz	r2, 80005fc <DMA1_Stream4_IRQHandler+0xc0>
 80005d2:	6c9b      	ldr	r3, [r3, #72]	@ 0x48
 80005d4:	4798      	blx	r3
 80005d6:	4a0a      	ldr	r2, [pc, #40]	@ (8000600 <DMA1_Stream4_IRQHandler+0xc4>)
 80005d8:	68d3      	ldr	r3, [r2, #12]
 80005da:	f043 0320 	orr.w	r3, r3, #32
 80005de:	60d3      	str	r3, [r2, #12]
 80005e0:	6823      	ldr	r3, [r4, #0]
 80005e2:	6b9a      	ldr	r2, [r3, #56]	@ 0x38
 80005e4:	f5b2 2f80 	cmp.w	r2, #262144	@ 0x40000
 80005e8:	d108      	bne.n	80005fc <DMA1_Stream4_IRQHandler+0xc0>
 80005ea:	685a      	ldr	r2, [r3, #4]
 80005ec:	6812      	ldr	r2, [r2, #0]
 80005ee:	0352      	lsls	r2, r2, #13
 80005f0:	e8bd 4070 	ldmia.w	sp!, {r4, r5, r6, lr}
 80005f4:	bf4c      	ite	mi
 80005f6:	6d1b      	ldrmi	r3, [r3, #80]	@ 0x50
 80005f8:	6d5b      	ldrpl	r3, [r3, #84]	@ 0x54
 80005fa:	4718      	bx	r3
 80005fc:	bd70      	pop	{r4, r5, r6, pc}
 80005fe:	bf00      	nop
 8000600:	40026000 	.word	0x40026000
 8000604:	20000030 	.word	0x20000030
 8000608:	20000064 	.word	0x20000064

0800060c <DMA1_Stream5_IRQHandler>:
 800060c:	b570      	push	{r4, r5, r6, lr}
 800060e:	4d30      	ldr	r5, [pc, #192]	@ (80006d0 <DMA1_Stream5_IRQHandler+0xc4>)
 8000610:	4c30      	ldr	r4, [pc, #192]	@ (80006d4 <DMA1_Stream5_IRQHandler+0xc8>)
 8000612:	686b      	ldr	r3, [r5, #4]
 8000614:	6023      	str	r3, [r4, #0]
 8000616:	6823      	ldr	r3, [r4, #0]
 8000618:	065a      	lsls	r2, r3, #25
 800061a:	d508      	bpl.n	800062e <DMA1_Stream5_IRQHandler+0x22>
 800061c:	4b2e      	ldr	r3, [pc, #184]	@ (80006d8 <DMA1_Stream5_IRQHandler+0xcc>)
 800061e:	681b      	ldr	r3, [r3, #0]
 8000620:	6bdb      	ldr	r3, [r3, #60]	@ 0x3c
 8000622:	b123      	cbz	r3, 800062e <DMA1_Stream5_IRQHandler+0x22>
 8000624:	4798      	blx	r3
 8000626:	68eb      	ldr	r3, [r5, #12]
 8000628:	f043 0340 	orr.w	r3, r3, #64	@ 0x40
 800062c:	60eb      	str	r3, [r5, #12]
 800062e:	6823      	ldr	r3, [r4, #0]
 8000630:	05db      	lsls	r3, r3, #23
 8000632:	d509      	bpl.n	8000648 <DMA1_Stream5_IRQHandler+0x3c>
 8000634:	4b28      	ldr	r3, [pc, #160]	@ (80006d8 <DMA1_Stream5_IRQHandler+0xcc>)
 8000636:	681b      	ldr	r3, [r3, #0]
 8000638:	6c1b      	ldr	r3, [r3, #64]	@ 0x40
 800063a:	b12b      	cbz	r3, 8000648 <DMA1_Stream5_IRQHandler+0x3c>
 800063c:	4798      	blx	r3
 800063e:	4a24      	ldr	r2, [pc, #144]	@ (80006d0 <DMA1_Stream5_IRQHandler+0xc4>)
 8000640:	68d3      	ldr	r3, [r2, #12]
 8000642:	f443 7380 	orr.w	r3, r3, #256	@ 0x100
 8000646:	60d3      	str	r3, [r2, #12]
 8000648:	6823      	ldr	r3, [r4, #0]
 800064a:	059e      	lsls	r6, r3, #22
 800064c:	d509      	bpl.n	8000662 <DMA1_Stream5_IRQHandler+0x56>
 800064e:	4b22      	ldr	r3, [pc, #136]	@ (80006d8 <DMA1_Stream5_IRQHandler+0xcc>)
 8000650:	681b      	ldr	r3, [r3, #0]
 8000652:	6c5b      	ldr	r3, [r3, #68]	@ 0x44
 8000654:	b12b      	cbz	r3, 8000662 <DMA1_Stream5_IRQHandler+0x56>
 8000656:	4798      	blx	r3
 8000658:	4a1d      	ldr	r2, [pc, #116]	@ (80006d0 <DMA1_Stream5_IRQHandler+0xc4>)
 800065a:	68d3      	ldr	r3, [r2, #12]
 800065c:	f443 7300 	orr.w	r3, r3, #512	@ 0x200
 8000660:	60d3      	str	r3, [r2, #12]
 8000662:	6823      	ldr	r3, [r4, #0]
 8000664:	055d      	lsls	r5, r3, #21
 8000666:	d515      	bpl.n	8000694 <DMA1_Stream5_IRQHandler+0x88>
 8000668:	4d1b      	ldr	r5, [pc, #108]	@ (80006d8 <DMA1_Stream5_IRQHandler+0xcc>)
 800066a:	682b      	ldr	r3, [r5, #0]
 800066c:	6c9b      	ldr	r3, [r3, #72]	@ 0x48
 800066e:	b18b      	cbz	r3, 8000694 <DMA1_Stream5_IRQHandler+0x88>
 8000670:	4798      	blx	r3
 8000672:	4a17      	ldr	r2, [pc, #92]	@ (80006d0 <DMA1_Stream5_IRQHandler+0xc4>)
 8000674:	68d3      	ldr	r3, [r2, #12]
 8000676:	f443 6380 	orr.w	r3, r3, #1024	@ 0x400
 800067a:	60d3      	str	r3, [r2, #12]
 800067c:	682b      	ldr	r3, [r5, #0]
 800067e:	6b9a      	ldr	r2, [r3, #56]	@ 0x38
 8000680:	f5b2 2f80 	cmp.w	r2, #262144	@ 0x40000
 8000684:	d106      	bne.n	8000694 <DMA1_Stream5_IRQHandler+0x88>
 8000686:	685a      	ldr	r2, [r3, #4]
 8000688:	6812      	ldr	r2, [r2, #0]
 800068a:	0350      	lsls	r0, r2, #13
 800068c:	bf4c      	ite	mi
 800068e:	6d1b      	ldrmi	r3, [r3, #80]	@ 0x50
 8000690:	6d5b      	ldrpl	r3, [r3, #84]	@ 0x54
 8000692:	4798      	blx	r3
 8000694:	6823      	ldr	r3, [r4, #0]
 8000696:	0519      	lsls	r1, r3, #20
 8000698:	d518      	bpl.n	80006cc <DMA1_Stream5_IRQHandler+0xc0>
 800069a:	4c0f      	ldr	r4, [pc, #60]	@ (80006d8 <DMA1_Stream5_IRQHandler+0xcc>)
 800069c:	6823      	ldr	r3, [r4, #0]
 800069e:	6cda      	ldr	r2, [r3, #76]	@ 0x4c
 80006a0:	b1a2      	cbz	r2, 80006cc <DMA1_Stream5_IRQHandler+0xc0>
 80006a2:	6c9b      	ldr	r3, [r3, #72]	@ 0x48
 80006a4:	4798      	blx	r3
 80006a6:	4a0a      	ldr	r2, [pc, #40]	@ (80006d0 <DMA1_Stream5_IRQHandler+0xc4>)
 80006a8:	68d3      	ldr	r3, [r2, #12]
 80006aa:	f443 6300 	orr.w	r3, r3, #2048	@ 0x800
 80006ae:	60d3      	str	r3, [r2, #12]
 80006b0:	6823      	ldr	r3, [r4, #0]
 80006b2:	6b9a      	ldr	r2, [r3, #56]	@ 0x38
 80006b4:	f5b2 2f80 	cmp.w	r2, #262144	@ 0x40000
 80006b8:	d108      	bne.n	80006cc <DMA1_Stream5_IRQHandler+0xc0>
 80006ba:	685a      	ldr	r2, [r3, #4]
 80006bc:	6812      	ldr	r2, [r2, #0]
 80006be:	0352      	lsls	r2, r2, #13
 80006c0:	e8bd 4070 	ldmia.w	sp!, {r4, r5, r6, lr}
 80006c4:	bf4c      	ite	mi
 80006c6:	6d1b      	ldrmi	r3, [r3, #80]	@ 0x50
 80006c8:	6d5b      	ldrpl	r3, [r3, #84]	@ 0x54
 80006ca:	4718      	bx	r3
 80006cc:	bd70      	pop	{r4, r5, r6, pc}
 80006ce:	bf00      	nop
 80006d0:	40026000 	.word	0x40026000
 80006d4:	20000030 	.word	0x20000030
 80006d8:	20000060 	.word	0x20000060

080006dc <DMA1_Stream6_IRQHandler>:
 80006dc:	b570      	push	{r4, r5, r6, lr}
 80006de:	4d30      	ldr	r5, [pc, #192]	@ (80007a0 <DMA1_Stream6_IRQHandler+0xc4>)
 80006e0:	4c30      	ldr	r4, [pc, #192]	@ (80007a4 <DMA1_Stream6_IRQHandler+0xc8>)
 80006e2:	686b      	ldr	r3, [r5, #4]
 80006e4:	6023      	str	r3, [r4, #0]
 80006e6:	6823      	ldr	r3, [r4, #0]
 80006e8:	03da      	lsls	r2, r3, #15
 80006ea:	d508      	bpl.n	80006fe <DMA1_Stream6_IRQHandler+0x22>
 80006ec:	4b2e      	ldr	r3, [pc, #184]	@ (80007a8 <DMA1_Stream6_IRQHandler+0xcc>)
 80006ee:	681b      	ldr	r3, [r3, #0]
 80006f0:	6bdb      	ldr	r3, [r3, #60]	@ 0x3c
 80006f2:	b123      	cbz	r3, 80006fe <DMA1_Stream6_IRQHandler+0x22>
 80006f4:	4798      	blx	r3
 80006f6:	68eb      	ldr	r3, [r5, #12]
 80006f8:	f443 3380 	orr.w	r3, r3, #65536	@ 0x10000
 80006fc:	60eb      	str	r3, [r5, #12]
 80006fe:	6823      	ldr	r3, [r4, #0]
 8000700:	035b      	lsls	r3, r3, #13
 8000702:	d509      	bpl.n	8000718 <DMA1_Stream6_IRQHandler+0x3c>
 8000704:	4b28      	ldr	r3, [pc, #160]	@ (80007a8 <DMA1_Stream6_IRQHandler+0xcc>)
 8000706:	681b      	ldr	r3, [r3, #0]
 8000708:	6c1b      	ldr	r3, [r3, #64]	@ 0x40
 800070a:	b12b      	cbz	r3, 8000718 <DMA1_Stream6_IRQHandler+0x3c>
 800070c:	4798      	blx	r3
 800070e:	4a24      	ldr	r2, [pc, #144]	@ (80007a0 <DMA1_Stream6_IRQHandler+0xc4>)
 8000710:	68d3      	ldr	r3, [r2, #12]
 8000712:	f443 2380 	orr.w	r3, r3, #262144	@ 0x40000
 8000716:	60d3      	str	r3, [r2, #12]
 8000718:	6823      	ldr	r3, [r4, #0]
 800071a:	031e      	lsls	r6, r3, #12
 800071c:	d509      	bpl.n	8000732 <DMA1_Stream6_IRQHandler+0x56>
 800071e:	4b22      	ldr	r3, [pc, #136]	@ (80007a8 <DMA1_Stream6_IRQHandler+0xcc>)
 8000720:	681b      	ldr	r3, [r3, #0]
 8000722:	6c5b      	ldr	r3, [r3, #68]	@ 0x44
 8000724:	b12b      	cbz	r3, 8000732 <DMA1_Stream6_IRQHandler+0x56>
 8000726:	4798      	blx	r3
 8000728:	4a1d      	ldr	r2, [pc, #116]	@ (80007a0 <DMA1_Stream6_IRQHandler+0xc4>)
 800072a:	68d3      	ldr	r3, [r2, #12]
 800072c:	f443 2300 	orr.w	r3, r3, #524288	@ 0x80000
 8000730:	60d3      	str	r3, [r2, #12]
 8000732:	6823      	ldr	r3, [r4, #0]
 8000734:	02dd      	lsls	r5, r3, #11
 8000736:	d515      	bpl.n	8000764 <DMA1_Stream6_IRQHandler+0x88>
 8000738:	4d1b      	ldr	r5, [pc, #108]	@ (80007a8 <DMA1_Stream6_IRQHandler+0xcc>)
 800073a:	682b      	ldr	r3, [r5, #0]
 800073c:	6c9b      	ldr	r3, [r3, #72]	@ 0x48
 800073e:	b18b      	cbz	r3, 8000764 <DMA1_Stream6_IRQHandler+0x88>
 8000740:	4798      	blx	r3
 8000742:	4a17      	ldr	r2, [pc, #92]	@ (80007a0 <DMA1_Stream6_IRQHandler+0xc4>)
 8000744:	68d3      	ldr	r3, [r2, #12]
 8000746:	f443 1380 	orr.w	r3, r3, #1048576	@ 0x100000
 800074a:	60d3      	str	r3, [r2, #12]
 800074c:	682b      	ldr	r3, [r5, #0]
 800074e:	6b9a      	ldr	r2, [r3, #56]	@ 0x38
 8000750:	f5b2 2f80 	cmp.w	r2, #262144	@ 0x40000
 8000754:	d106      	bne.n	8000764 <DMA1_Stream6_IRQHandler+0x88>
 8000756:	685a      	ldr	r2, [r3, #4]
 8000758:	6812      	ldr	r2, [r2, #0]
 800075a:	0350      	lsls	r0, r2, #13
 800075c:	bf4c      	ite	mi
 800075e:	6d1b      	ldrmi	r3, [r3, #80]	@ 0x50
 8000760:	6d5b      	ldrpl	r3, [r3, #84]	@ 0x54
 8000762:	4798      	blx	r3
 8000764:	6823      	ldr	r3, [r4, #0]
 8000766:	0299      	lsls	r1, r3, #10
 8000768:	d518      	bpl.n	800079c <DMA1_Stream6_IRQHandler+0xc0>
 800076a:	4c0f      	ldr	r4, [pc, #60]	@ (80007a8 <DMA1_Stream6_IRQHandler+0xcc>)
 800076c:	6823      	ldr	r3, [r4, #0]
 800076e:	6cda      	ldr	r2, [r3, #76]	@ 0x4c
 8000770:	b1a2      	cbz	r2, 800079c <DMA1_Stream6_IRQHandler+0xc0>
 8000772:	6c9b      	ldr	r3, [r3, #72]	@ 0x48
 8000774:	4798      	blx	r3
 8000776:	4a0a      	ldr	r2, [pc, #40]	@ (80007a0 <DMA1_Stream6_IRQHandler+0xc4>)
 8000778:	68d3      	ldr	r3, [r2, #12]
 800077a:	f443 1300 	orr.w	r3, r3, #2097152	@ 0x200000
 800077e:	60d3      	str	r3, [r2, #12]
 8000780:	6823      	ldr	r3, [r4, #0]
 8000782:	6b9a      	ldr	r2, [r3, #56]	@ 0x38
 8000784:	f5b2 2f80 	cmp.w	r2, #262144	@ 0x40000
 8000788:	d108      	bne.n	800079c <DMA1_Stream6_IRQHandler+0xc0>
 800078a:	685a      	ldr	r2, [r3, #4]
 800078c:	6812      	ldr	r2, [r2, #0]
 800078e:	0352      	lsls	r2, r2, #13
 8000790:	e8bd 4070 	ldmia.w	sp!, {r4, r5, r6, lr}
 8000794:	bf4c      	ite	mi
 8000796:	6d1b      	ldrmi	r3, [r3, #80]	@ 0x50
 8000798:	6d5b      	ldrpl	r3, [r3, #84]	@ 0x54
 800079a:	4718      	bx	r3
 800079c:	bd70      	pop	{r4, r5, r6, pc}
 800079e:	bf00      	nop
 80007a0:	40026000 	.word	0x40026000
 80007a4:	20000030 	.word	0x20000030
 80007a8:	2000005c 	.word	0x2000005c

080007ac <DMA1_Stream7_IRQHandler>:
 80007ac:	b570      	push	{r4, r5, r6, lr}
 80007ae:	4d30      	ldr	r5, [pc, #192]	@ (8000870 <DMA1_Stream7_IRQHandler+0xc4>)
 80007b0:	4c30      	ldr	r4, [pc, #192]	@ (8000874 <DMA1_Stream7_IRQHandler+0xc8>)
 80007b2:	686b      	ldr	r3, [r5, #4]
 80007b4:	6023      	str	r3, [r4, #0]
 80007b6:	6823      	ldr	r3, [r4, #0]
 80007b8:	025a      	lsls	r2, r3, #9
 80007ba:	d508      	bpl.n	80007ce <DMA1_Stream7_IRQHandler+0x22>
 80007bc:	4b2e      	ldr	r3, [pc, #184]	@ (8000878 <DMA1_Stream7_IRQHandler+0xcc>)
 80007be:	681b      	ldr	r3, [r3, #0]
 80007c0:	6bdb      	ldr	r3, [r3, #60]	@ 0x3c
 80007c2:	b123      	cbz	r3, 80007ce <DMA1_Stream7_IRQHandler+0x22>
 80007c4:	4798      	blx	r3
 80007c6:	68eb      	ldr	r3, [r5, #12]
 80007c8:	f443 0380 	orr.w	r3, r3, #4194304	@ 0x400000
 80007cc:	60eb      	str	r3, [r5, #12]
 80007ce:	6823      	ldr	r3, [r4, #0]
 80007d0:	01db      	lsls	r3, r3, #7
 80007d2:	d509      	bpl.n	80007e8 <DMA1_Stream7_IRQHandler+0x3c>
 80007d4:	4b28      	ldr	r3, [pc, #160]	@ (8000878 <DMA1_Stream7_IRQHandler+0xcc>)
 80007d6:	681b      	ldr	r3, [r3, #0]
 80007d8:	6c1b      	ldr	r3, [r3, #64]	@ 0x40
 80007da:	b12b      	cbz	r3, 80007e8 <DMA1_Stream7_IRQHandler+0x3c>
 80007dc:	4798      	blx	r3
 80007de:	4a24      	ldr	r2, [pc, #144]	@ (8000870 <DMA1_Stream7_IRQHandler+0xc4>)
 80007e0:	68d3      	ldr	r3, [r2, #12]
 80007e2:	f043 7380 	orr.w	r3, r3, #16777216	@ 0x1000000
 80007e6:	60d3      	str	r3, [r2, #12]
 80007e8:	6823      	ldr	r3, [r4, #0]
 80007ea:	019e      	lsls	r6, r3, #6
 80007ec:	d509      	bpl.n	8000802 <DMA1_Stream7_IRQHandler+0x56>
 80007ee:	4b22      	ldr	r3, [pc, #136]	@ (8000878 <DMA1_Stream7_IRQHandler+0xcc>)
 80007f0:	681b      	ldr	r3, [r3, #0]
 80007f2:	6c5b      	ldr	r3, [r3, #68]	@ 0x44
 80007f4:	b12b      	cbz	r3, 8000802 <DMA1_Stream7_IRQHandler+0x56>
 80007f6:	4798      	blx	r3
 80007f8:	4a1d      	ldr	r2, [pc, #116]	@ (8000870 <DMA1_Stream7_IRQHandler+0xc4>)
 80007fa:	68d3      	ldr	r3, [r2, #12]
 80007fc:	f043 7300 	orr.w	r3, r3, #33554432	@ 0x2000000
 8000800:	60d3      	str	r3, [r2, #12]
 8000802:	6823      	ldr	r3, [r4, #0]
 8000804:	015d      	lsls	r5, r3, #5
 8000806:	d515      	bpl.n	8000834 <DMA1_Stream7_IRQHandler+0x88>
 8000808:	4d1b      	ldr	r5, [pc, #108]	@ (8000878 <DMA1_Stream7_IRQHandler+0xcc>)
 800080a:	682b      	ldr	r3, [r5, #0]
 800080c:	6c9b      	ldr	r3, [r3, #72]	@ 0x48
 800080e:	b18b      	cbz	r3, 8000834 <DMA1_Stream7_IRQHandler+0x88>
 8000810:	4798      	blx	r3
 8000812:	4a17      	ldr	r2, [pc, #92]	@ (8000870 <DMA1_Stream7_IRQHandler+0xc4>)
 8000814:	68d3      	ldr	r3, [r2, #12]
 8000816:	f043 6380 	orr.w	r3, r3, #67108864	@ 0x4000000
 800081a:	60d3      	str	r3, [r2, #12]
 800081c:	682b      	ldr	r3, [r5, #0]
 800081e:	6b9a      	ldr	r2, [r3, #56]	@ 0x38
 8000820:	f5b2 2f80 	cmp.w	r2, #262144	@ 0x40000
 8000824:	d106      	bne.n	8000834 <DMA1_Stream7_IRQHandler+0x88>
 8000826:	685a      	ldr	r2, [r3, #4]
 8000828:	6812      	ldr	r2, [r2, #0]
 800082a:	0350      	lsls	r0, r2, #13
 800082c:	bf4c      	ite	mi
 800082e:	6d1b      	ldrmi	r3, [r3, #80]	@ 0x50
 8000830:	6d5b      	ldrpl	r3, [r3, #84]	@ 0x54
 8000832:	4798      	blx	r3
 8000834:	6823      	ldr	r3, [r4, #0]
 8000836:	0119      	lsls	r1, r3, #4
 8000838:	d518      	bpl.n	800086c <DMA1_Stream7_IRQHandler+0xc0>
 800083a:	4c0f      	ldr	r4, [pc, #60]	@ (8000878 <DMA1_Stream7_IRQHandler+0xcc>)
 800083c:	6823      	ldr	r3, [r4, #0]
 800083e:	6cda      	ldr	r2, [r3, #76]	@ 0x4c
 8000840:	b1a2      	cbz	r2, 800086c <DMA1_Stream7_IRQHandler+0xc0>
 8000842:	6c9b      	ldr	r3, [r3, #72]	@ 0x48
 8000844:	4798      	blx	r3
 8000846:	4a0a      	ldr	r2, [pc, #40]	@ (8000870 <DMA1_Stream7_IRQHandler+0xc4>)
 8000848:	68d3      	ldr	r3, [r2, #12]
 800084a:	f043 6300 	orr.w	r3, r3, #134217728	@ 0x8000000
 800084e:	60d3      	str	r3, [r2, #12]
 8000850:	6823      	ldr	r3, [r4, #0]
 8000852:	6b9a      	ldr	r2, [r3, #56]	@ 0x38
 8000854:	f5b2 2f80 	cmp.w	r2, #262144	@ 0x40000
 8000858:	d108      	bne.n	800086c <DMA1_Stream7_IRQHandler+0xc0>
 800085a:	685a      	ldr	r2, [r3, #4]
 800085c:	6812      	ldr	r2, [r2, #0]
 800085e:	0352      	lsls	r2, r2, #13
 8000860:	e8bd 4070 	ldmia.w	sp!, {r4, r5, r6, lr}
 8000864:	bf4c      	ite	mi
 8000866:	6d1b      	ldrmi	r3, [r3, #80]	@ 0x50
 8000868:	6d5b      	ldrpl	r3, [r3, #84]	@ 0x54
 800086a:	4718      	bx	r3
 800086c:	bd70      	pop	{r4, r5, r6, pc}
 800086e:	bf00      	nop
 8000870:	40026000 	.word	0x40026000
 8000874:	20000030 	.word	0x20000030
 8000878:	20000058 	.word	0x20000058

0800087c <DMA2_Stream0_IRQHandler>:
 800087c:	b570      	push	{r4, r5, r6, lr}
 800087e:	4d37      	ldr	r5, [pc, #220]	@ (800095c <DMA2_Stream0_IRQHandler+0xe0>)
 8000880:	4c37      	ldr	r4, [pc, #220]	@ (8000960 <DMA2_Stream0_IRQHandler+0xe4>)
 8000882:	682b      	ldr	r3, [r5, #0]
 8000884:	6023      	str	r3, [r4, #0]
 8000886:	6823      	ldr	r3, [r4, #0]
 8000888:	07db      	lsls	r3, r3, #31
 800088a:	d50b      	bpl.n	80008a4 <DMA2_Stream0_IRQHandler+0x28>
 800088c:	4b35      	ldr	r3, [pc, #212]	@ (8000964 <DMA2_Stream0_IRQHandler+0xe8>)
 800088e:	681b      	ldr	r3, [r3, #0]
 8000890:	69da      	ldr	r2, [r3, #28]
 8000892:	0616      	lsls	r6, r2, #24
 8000894:	d506      	bpl.n	80008a4 <DMA2_Stream0_IRQHandler+0x28>
 8000896:	6bdb      	ldr	r3, [r3, #60]	@ 0x3c
 8000898:	b123      	cbz	r3, 80008a4 <DMA2_Stream0_IRQHandler+0x28>
 800089a:	4798      	blx	r3
 800089c:	68ab      	ldr	r3, [r5, #8]
 800089e:	f043 0301 	orr.w	r3, r3, #1
 80008a2:	60ab      	str	r3, [r5, #8]
 80008a4:	6823      	ldr	r3, [r4, #0]
 80008a6:	075d      	lsls	r5, r3, #29
 80008a8:	d50c      	bpl.n	80008c4 <DMA2_Stream0_IRQHandler+0x48>
 80008aa:	4b2e      	ldr	r3, [pc, #184]	@ (8000964 <DMA2_Stream0_IRQHandler+0xe8>)
 80008ac:	681b      	ldr	r3, [r3, #0]
 80008ae:	69da      	ldr	r2, [r3, #28]
 80008b0:	0790      	lsls	r0, r2, #30
 80008b2:	d507      	bpl.n	80008c4 <DMA2_Stream0_IRQHandler+0x48>
 80008b4:	6c1b      	ldr	r3, [r3, #64]	@ 0x40
 80008b6:	b12b      	cbz	r3, 80008c4 <DMA2_Stream0_IRQHandler+0x48>
 80008b8:	4798      	blx	r3
 80008ba:	4a28      	ldr	r2, [pc, #160]	@ (800095c <DMA2_Stream0_IRQHandler+0xe0>)
 80008bc:	6893      	ldr	r3, [r2, #8]
 80008be:	f043 0304 	orr.w	r3, r3, #4
 80008c2:	6093      	str	r3, [r2, #8]
 80008c4:	6823      	ldr	r3, [r4, #0]
 80008c6:	0719      	lsls	r1, r3, #28
 80008c8:	d50c      	bpl.n	80008e4 <DMA2_Stream0_IRQHandler+0x68>
 80008ca:	4b26      	ldr	r3, [pc, #152]	@ (8000964 <DMA2_Stream0_IRQHandler+0xe8>)
 80008cc:	681b      	ldr	r3, [r3, #0]
 80008ce:	69da      	ldr	r2, [r3, #28]
 80008d0:	0752      	lsls	r2, r2, #29
 80008d2:	d507      	bpl.n	80008e4 <DMA2_Stream0_IRQHandler+0x68>
 80008d4:	6c5b      	ldr	r3, [r3, #68]	@ 0x44
 80008d6:	b12b      	cbz	r3, 80008e4 <DMA2_Stream0_IRQHandler+0x68>
 80008d8:	4798      	blx	r3
 80008da:	4a20      	ldr	r2, [pc, #128]	@ (800095c <DMA2_Stream0_IRQHandler+0xe0>)
 80008dc:	6893      	ldr	r3, [r2, #8]
 80008de:	f043 0308 	orr.w	r3, r3, #8
 80008e2:	6093      	str	r3, [r2, #8]
 80008e4:	6823      	ldr	r3, [r4, #0]
 80008e6:	06db      	lsls	r3, r3, #27
 80008e8:	d518      	bpl.n	800091c <DMA2_Stream0_IRQHandler+0xa0>
 80008ea:	4d1e      	ldr	r5, [pc, #120]	@ (8000964 <DMA2_Stream0_IRQHandler+0xe8>)
 80008ec:	682b      	ldr	r3, [r5, #0]
 80008ee:	69da      	ldr	r2, [r3, #28]
 80008f0:	0716      	lsls	r6, r2, #28
 80008f2:	d513      	bpl.n	800091c <DMA2_Stream0_IRQHandler+0xa0>
 80008f4:	6c9b      	ldr	r3, [r3, #72]	@ 0x48
 80008f6:	b18b      	cbz	r3, 800091c <DMA2_Stream0_IRQHandler+0xa0>
 80008f8:	4798      	blx	r3
 80008fa:	4a18      	ldr	r2, [pc, #96]	@ (800095c <DMA2_Stream0_IRQHandler+0xe0>)
 80008fc:	6893      	ldr	r3, [r2, #8]
 80008fe:	f043 0310 	orr.w	r3, r3, #16
 8000902:	6093      	str	r3, [r2, #8]
 8000904:	682b      	ldr	r3, [r5, #0]
 8000906:	6b9a      	ldr	r2, [r3, #56]	@ 0x38
 8000908:	f5b2 2f80 	cmp.w	r2, #262144	@ 0x40000
 800090c:	d106      	bne.n	800091c <DMA2_Stream0_IRQHandler+0xa0>
 800090e:	685a      	ldr	r2, [r3, #4]
 8000910:	6812      	ldr	r2, [r2, #0]
 8000912:	0355      	lsls	r5, r2, #13
 8000914:	bf4c      	ite	mi
 8000916:	6d1b      	ldrmi	r3, [r3, #80]	@ 0x50
 8000918:	6d5b      	ldrpl	r3, [r3, #84]	@ 0x54
 800091a:	4798      	blx	r3
 800091c:	6823      	ldr	r3, [r4, #0]
 800091e:	0698      	lsls	r0, r3, #26
 8000920:	d51a      	bpl.n	8000958 <DMA2_Stream0_IRQHandler+0xdc>
 8000922:	4c10      	ldr	r4, [pc, #64]	@ (8000964 <DMA2_Stream0_IRQHandler+0xe8>)
 8000924:	6823      	ldr	r3, [r4, #0]
 8000926:	69da      	ldr	r2, [r3, #28]
 8000928:	06d1      	lsls	r1, r2, #27
 800092a:	d515      	bpl.n	8000958 <DMA2_Stream0_IRQHandler+0xdc>
 800092c:	6cdb      	ldr	r3, [r3, #76]	@ 0x4c
 800092e:	b19b      	cbz	r3, 8000958 <DMA2_Stream0_IRQHandler+0xdc>
 8000930:	4798      	blx	r3
 8000932:	4a0a      	ldr	r2, [pc, #40]	@ (800095c <DMA2_Stream0_IRQHandler+0xe0>)
 8000934:	6893      	ldr	r3, [r2, #8]
 8000936:	f043 0320 	orr.w	r3, r3, #32
 800093a:	6093      	str	r3, [r2, #8]
 800093c:	6823      	ldr	r3, [r4, #0]
 800093e:	6b9a      	ldr	r2, [r3, #56]	@ 0x38
 8000940:	f5b2 2f80 	cmp.w	r2, #262144	@ 0x40000
 8000944:	d108      	bne.n	8000958 <DMA2_Stream0_IRQHandler+0xdc>
 8000946:	685a      	ldr	r2, [r3, #4]
 8000948:	6812      	ldr	r2, [r2, #0]
 800094a:	0352      	lsls	r2, r2, #13
 800094c:	e8bd 4070 	ldmia.w	sp!, {r4, r5, r6, lr}
 8000950:	bf4c      	ite	mi
 8000952:	6d1b      	ldrmi	r3, [r3, #80]	@ 0x50
 8000954:	6d5b      	ldrpl	r3, [r3, #84]	@ 0x54
 8000956:	4718      	bx	r3
 8000958:	bd70      	pop	{r4, r5, r6, pc}
 800095a:	bf00      	nop
 800095c:	40026400 	.word	0x40026400
 8000960:	20000034 	.word	0x20000034
 8000964:	20000054 	.word	0x20000054

08000968 <DMA2_Stream1_IRQHandler>:
 8000968:	b570      	push	{r4, r5, r6, lr}
 800096a:	4d30      	ldr	r5, [pc, #192]	@ (8000a2c <DMA2_Stream1_IRQHandler+0xc4>)
 800096c:	4c30      	ldr	r4, [pc, #192]	@ (8000a30 <DMA2_Stream1_IRQHandler+0xc8>)
 800096e:	682b      	ldr	r3, [r5, #0]
 8000970:	6023      	str	r3, [r4, #0]
 8000972:	6823      	ldr	r3, [r4, #0]
 8000974:	065a      	lsls	r2, r3, #25
 8000976:	d508      	bpl.n	800098a <DMA2_Stream1_IRQHandler+0x22>
 8000978:	4b2e      	ldr	r3, [pc, #184]	@ (8000a34 <DMA2_Stream1_IRQHandler+0xcc>)
 800097a:	681b      	ldr	r3, [r3, #0]
 800097c:	6bdb      	ldr	r3, [r3, #60]	@ 0x3c
 800097e:	b123      	cbz	r3, 800098a <DMA2_Stream1_IRQHandler+0x22>
 8000980:	4798      	blx	r3
 8000982:	68ab      	ldr	r3, [r5, #8]
 8000984:	f043 0340 	orr.w	r3, r3, #64	@ 0x40
 8000988:	60ab      	str	r3, [r5, #8]
 800098a:	6823      	ldr	r3, [r4, #0]
 800098c:	05db      	lsls	r3, r3, #23
 800098e:	d509      	bpl.n	80009a4 <DMA2_Stream1_IRQHandler+0x3c>
 8000990:	4b28      	ldr	r3, [pc, #160]	@ (8000a34 <DMA2_Stream1_IRQHandler+0xcc>)
 8000992:	681b      	ldr	r3, [r3, #0]
 8000994:	6c1b      	ldr	r3, [r3, #64]	@ 0x40
 8000996:	b12b      	cbz	r3, 80009a4 <DMA2_Stream1_IRQHandler+0x3c>
 8000998:	4798      	blx	r3
 800099a:	4a24      	ldr	r2, [pc, #144]	@ (8000a2c <DMA2_Stream1_IRQHandler+0xc4>)
 800099c:	6893      	ldr	r3, [r2, #8]
 800099e:	f443 7380 	orr.w	r3, r3, #256	@ 0x100
 80009a2:	6093      	str	r3, [r2, #8]
 80009a4:	6823      	ldr	r3, [r4, #0]
 80009a6:	059e      	lsls	r6, r3, #22
 80009a8:	d509      	bpl.n	80009be <DMA2_Stream1_IRQHandler+0x56>
 80009aa:	4b22      	ldr	r3, [pc, #136]	@ (8000a34 <DMA2_Stream1_IRQHandler+0xcc>)
 80009ac:	681b      	ldr	r3, [r3, #0]
 80009ae:	6c5b      	ldr	r3, [r3, #68]	@ 0x44
 80009b0:	b12b      	cbz	r3, 80009be <DMA2_Stream1_IRQHandler+0x56>
 80009b2:	4798      	blx	r3
 80009b4:	4a1d      	ldr	r2, [pc, #116]	@ (8000a2c <DMA2_Stream1_IRQHandler+0xc4>)
 80009b6:	6893      	ldr	r3, [r2, #8]
 80009b8:	f443 7300 	orr.w	r3, r3, #512	@ 0x200
 80009bc:	6093      	str	r3, [r2, #8]
 80009be:	6823      	ldr	r3, [r4, #0]
 80009c0:	055d      	lsls	r5, r3, #21
 80009c2:	d515      	bpl.n	80009f0 <DMA2_Stream1_IRQHandler+0x88>
 80009c4:	4d1b      	ldr	r5, [pc, #108]	@ (8000a34 <DMA2_Stream1_IRQHandler+0xcc>)
 80009c6:	682b      	ldr	r3, [r5, #0]
 80009c8:	6c9b      	ldr	r3, [r3, #72]	@ 0x48
 80009ca:	b18b      	cbz	r3, 80009f0 <DMA2_Stream1_IRQHandler+0x88>
 80009cc:	4798      	blx	r3
 80009ce:	4a17      	ldr	r2, [pc, #92]	@ (8000a2c <DMA2_Stream1_IRQHandler+0xc4>)
 80009d0:	6893      	ldr	r3, [r2, #8]
 80009d2:	f443 6380 	orr.w	r3, r3, #1024	@ 0x400
 80009d6:	6093      	str	r3, [r2, #8]
 80009d8:	682b      	ldr	r3, [r5, #0]
 80009da:	6b9a      	ldr	r2, [r3, #56]	@ 0x38
 80009dc:	f5b2 2f80 	cmp.w	r2, #262144	@ 0x40000
 80009e0:	d106      	bne.n	80009f0 <DMA2_Stream1_IRQHandler+0x88>
 80009e2:	685a      	ldr	r2, [r3, #4]
 80009e4:	6812      	ldr	r2, [r2, #0]
 80009e6:	0350      	lsls	r0, r2, #13
 80009e8:	bf4c      	ite	mi
 80009ea:	6d1b      	ldrmi	r3, [r3, #80]	@ 0x50
 80009ec:	6d5b      	ldrpl	r3, [r3, #84]	@ 0x54
 80009ee:	4798      	blx	r3
 80009f0:	6823      	ldr	r3, [r4, #0]
 80009f2:	0519      	lsls	r1, r3, #20
 80009f4:	d518      	bpl.n	8000a28 <DMA2_Stream1_IRQHandler+0xc0>
 80009f6:	4c0f      	ldr	r4, [pc, #60]	@ (8000a34 <DMA2_Stream1_IRQHandler+0xcc>)
 80009f8:	6823      	ldr	r3, [r4, #0]
 80009fa:	6cda      	ldr	r2, [r3, #76]	@ 0x4c
 80009fc:	b1a2      	cbz	r2, 8000a28 <DMA2_Stream1_IRQHandler+0xc0>
 80009fe:	6c9b      	ldr	r3, [r3, #72]	@ 0x48
 8000a00:	4798      	blx	r3
 8000a02:	4a0a      	ldr	r2, [pc, #40]	@ (8000a2c <DMA2_Stream1_IRQHandler+0xc4>)
 8000a04:	6893      	ldr	r3, [r2, #8]
 8000a06:	f443 6300 	orr.w	r3, r3, #2048	@ 0x800
 8000a0a:	6093      	str	r3, [r2, #8]
 8000a0c:	6823      	ldr	r3, [r4, #0]
 8000a0e:	6b9a      	ldr	r2, [r3, #56]	@ 0x38
 8000a10:	f5b2 2f80 	cmp.w	r2, #262144	@ 0x40000
 8000a14:	d108      	bne.n	8000a28 <DMA2_Stream1_IRQHandler+0xc0>
 8000a16:	685a      	ldr	r2, [r3, #4]
 8000a18:	6812      	ldr	r2, [r2, #0]
 8000a1a:	0352      	lsls	r2, r2, #13
 8000a1c:	e8bd 4070 	ldmia.w	sp!, {r4, r5, r6, lr}
 8000a20:	bf4c      	ite	mi
 8000a22:	6d1b      	ldrmi	r3, [r3, #80]	@ 0x50
 8000a24:	6d5b      	ldrpl	r3, [r3, #84]	@ 0x54
 8000a26:	4718      	bx	r3
 8000a28:	bd70      	pop	{r4, r5, r6, pc}
 8000a2a:	bf00      	nop
 8000a2c:	40026400 	.word	0x40026400
 8000a30:	20000034 	.word	0x20000034
 8000a34:	20000050 	.word	0x20000050

08000a38 <DMA2_Stream2_IRQHandler>:
 8000a38:	b570      	push	{r4, r5, r6, lr}
 8000a3a:	4d30      	ldr	r5, [pc, #192]	@ (8000afc <DMA2_Stream2_IRQHandler+0xc4>)
 8000a3c:	4c30      	ldr	r4, [pc, #192]	@ (8000b00 <DMA2_Stream2_IRQHandler+0xc8>)
 8000a3e:	682b      	ldr	r3, [r5, #0]
 8000a40:	6023      	str	r3, [r4, #0]
 8000a42:	6823      	ldr	r3, [r4, #0]
 8000a44:	03da      	lsls	r2, r3, #15
 8000a46:	d508      	bpl.n	8000a5a <DMA2_Stream2_IRQHandler+0x22>
 8000a48:	4b2e      	ldr	r3, [pc, #184]	@ (8000b04 <DMA2_Stream2_IRQHandler+0xcc>)
 8000a4a:	681b      	ldr	r3, [r3, #0]
 8000a4c:	6bdb      	ldr	r3, [r3, #60]	@ 0x3c
 8000a4e:	b123      	cbz	r3, 8000a5a <DMA2_Stream2_IRQHandler+0x22>
 8000a50:	4798      	blx	r3
 8000a52:	68ab      	ldr	r3, [r5, #8]
 8000a54:	f443 3380 	orr.w	r3, r3, #65536	@ 0x10000
 8000a58:	60ab      	str	r3, [r5, #8]
 8000a5a:	6823      	ldr	r3, [r4, #0]
 8000a5c:	035b      	lsls	r3, r3, #13
 8000a5e:	d509      	bpl.n	8000a74 <DMA2_Stream2_IRQHandler+0x3c>
 8000a60:	4b28      	ldr	r3, [pc, #160]	@ (8000b04 <DMA2_Stream2_IRQHandler+0xcc>)
 8000a62:	681b      	ldr	r3, [r3, #0]
 8000a64:	6c1b      	ldr	r3, [r3, #64]	@ 0x40
 8000a66:	b12b      	cbz	r3, 8000a74 <DMA2_Stream2_IRQHandler+0x3c>
 8000a68:	4798      	blx	r3
 8000a6a:	4a24      	ldr	r2, [pc, #144]	@ (8000afc <DMA2_Stream2_IRQHandler+0xc4>)
 8000a6c:	6893      	ldr	r3, [r2, #8]
 8000a6e:	f443 2380 	orr.w	r3, r3, #262144	@ 0x40000
 8000a72:	6093      	str	r3, [r2, #8]
 8000a74:	6823      	ldr	r3, [r4, #0]
 8000a76:	031e      	lsls	r6, r3, #12
 8000a78:	d509      	bpl.n	8000a8e <DMA2_Stream2_IRQHandler+0x56>
 8000a7a:	4b22      	ldr	r3, [pc, #136]	@ (8000b04 <DMA2_Stream2_IRQHandler+0xcc>)
 8000a7c:	681b      	ldr	r3, [r3, #0]
 8000a7e:	6c5b      	ldr	r3, [r3, #68]	@ 0x44
 8000a80:	b12b      	cbz	r3, 8000a8e <DMA2_Stream2_IRQHandler+0x56>
 8000a82:	4798      	blx	r3
 8000a84:	4a1d      	ldr	r2, [pc, #116]	@ (8000afc <DMA2_Stream2_IRQHandler+0xc4>)
 8000a86:	6893      	ldr	r3, [r2, #8]
 8000a88:	f443 2300 	orr.w	r3, r3, #524288	@ 0x80000
 8000a8c:	6093      	str	r3, [r2, #8]
 8000a8e:	6823      	ldr	r3, [r4, #0]
 8000a90:	02dd      	lsls	r5, r3, #11
 8000a92:	d515      	bpl.n	8000ac0 <DMA2_Stream2_IRQHandler+0x88>
 8000a94:	4d1b      	ldr	r5, [pc, #108]	@ (8000b04 <DMA2_Stream2_IRQHandler+0xcc>)
 8000a96:	682b      	ldr	r3, [r5, #0]
 8000a98:	6c9b      	ldr	r3, [r3, #72]	@ 0x48
 8000a9a:	b18b      	cbz	r3, 8000ac0 <DMA2_Stream2_IRQHandler+0x88>
 8000a9c:	4798      	blx	r3
 8000a9e:	4a17      	ldr	r2, [pc, #92]	@ (8000afc <DMA2_Stream2_IRQHandler+0xc4>)
 8000aa0:	6893      	ldr	r3, [r2, #8]
 8000aa2:	f443 1380 	orr.w	r3, r3, #1048576	@ 0x100000
 8000aa6:	6093      	str	r3, [r2, #8]
 8000aa8:	682b      	ldr	r3, [r5, #0]
 8000aaa:	6b9a      	ldr	r2, [r3, #56]	@ 0x38
 8000aac:	f5b2 2f80 	cmp.w	r2, #262144	@ 0x40000
 8000ab0:	d106      	bne.n	8000ac0 <DMA2_Stream2_IRQHandler+0x88>
 8000ab2:	685a      	ldr	r2, [r3, #4]
 8000ab4:	6812      	ldr	r2, [r2, #0]
 8000ab6:	0350      	lsls	r0, r2, #13
 8000ab8:	bf4c      	ite	mi
 8000aba:	6d1b      	ldrmi	r3, [r3, #80]	@ 0x50
 8000abc:	6d5b      	ldrpl	r3, [r3, #84]	@ 0x54
 8000abe:	4798      	blx	r3
 8000ac0:	6823      	ldr	r3, [r4, #0]
 8000ac2:	0299      	lsls	r1, r3, #10
 8000ac4:	d518      	bpl.n	8000af8 <DMA2_Stream2_IRQHandler+0xc0>
 8000ac6:	4c0f      	ldr	r4, [pc, #60]	@ (8000b04 <DMA2_Stream2_IRQHandler+0xcc>)
 8000ac8:	6823      	ldr	r3, [r4, #0]
 8000aca:	6cda      	ldr	r2, [r3, #76]	@ 0x4c
 8000acc:	b1a2      	cbz	r2, 8000af8 <DMA2_Stream2_IRQHandler+0xc0>
 8000ace:	6c9b      	ldr	r3, [r3, #72]	@ 0x48
 8000ad0:	4798      	blx	r3
 8000ad2:	4a0a      	ldr	r2, [pc, #40]	@ (8000afc <DMA2_Stream2_IRQHandler+0xc4>)
 8000ad4:	6893      	ldr	r3, [r2, #8]
 8000ad6:	f443 1300 	orr.w	r3, r3, #2097152	@ 0x200000
 8000ada:	6093      	str	r3, [r2, #8]
 8000adc:	6823      	ldr	r3, [r4, #0]
 8000ade:	6b9a      	ldr	r2, [r3, #56]	@ 0x38
 8000ae0:	f5b2 2f80 	cmp.w	r2, #262144	@ 0x40000
 8000ae4:	d108      	bne.n	8000af8 <DMA2_Stream2_IRQHandler+0xc0>
 8000ae6:	685a      	ldr	r2, [r3, #4]
 8000ae8:	6812      	ldr	r2, [r2, #0]
 8000aea:	0352      	lsls	r2, r2, #13
 8000aec:	e8bd 4070 	ldmia.w	sp!, {r4, r5, r6, lr}
 8000af0:	bf4c      	ite	mi
 8000af2:	6d1b      	ldrmi	r3, [r3, #80]	@ 0x50
 8000af4:	6d5b      	ldrpl	r3, [r3, #84]	@ 0x54
 8000af6:	4718      	bx	r3
 8000af8:	bd70      	pop	{r4, r5, r6, pc}
 8000afa:	bf00      	nop
 8000afc:	40026400 	.word	0x40026400
 8000b00:	20000034 	.word	0x20000034
 8000b04:	2000004c 	.word	0x2000004c

08000b08 <DMA2_Stream3_IRQHandler>:
 8000b08:	b570      	push	{r4, r5, r6, lr}
 8000b0a:	4d37      	ldr	r5, [pc, #220]	@ (8000be8 <DMA2_Stream3_IRQHandler+0xe0>)
 8000b0c:	4c37      	ldr	r4, [pc, #220]	@ (8000bec <DMA2_Stream3_IRQHandler+0xe4>)
 8000b0e:	682b      	ldr	r3, [r5, #0]
 8000b10:	6023      	str	r3, [r4, #0]
 8000b12:	6823      	ldr	r3, [r4, #0]
 8000b14:	025b      	lsls	r3, r3, #9
 8000b16:	d50b      	bpl.n	8000b30 <DMA2_Stream3_IRQHandler+0x28>
 8000b18:	4b35      	ldr	r3, [pc, #212]	@ (8000bf0 <DMA2_Stream3_IRQHandler+0xe8>)
 8000b1a:	681b      	ldr	r3, [r3, #0]
 8000b1c:	69da      	ldr	r2, [r3, #28]
 8000b1e:	0616      	lsls	r6, r2, #24
 8000b20:	d506      	bpl.n	8000b30 <DMA2_Stream3_IRQHandler+0x28>
 8000b22:	6bdb      	ldr	r3, [r3, #60]	@ 0x3c
 8000b24:	b123      	cbz	r3, 8000b30 <DMA2_Stream3_IRQHandler+0x28>
 8000b26:	4798      	blx	r3
 8000b28:	68ab      	ldr	r3, [r5, #8]
 8000b2a:	f443 0380 	orr.w	r3, r3, #4194304	@ 0x400000
 8000b2e:	60ab      	str	r3, [r5, #8]
 8000b30:	6823      	ldr	r3, [r4, #0]
 8000b32:	01dd      	lsls	r5, r3, #7
 8000b34:	d50c      	bpl.n	8000b50 <DMA2_Stream3_IRQHandler+0x48>
 8000b36:	4b2e      	ldr	r3, [pc, #184]	@ (8000bf0 <DMA2_Stream3_IRQHandler+0xe8>)
 8000b38:	681b      	ldr	r3, [r3, #0]
 8000b3a:	69da      	ldr	r2, [r3, #28]
 8000b3c:	0790      	lsls	r0, r2, #30
 8000b3e:	d507      	bpl.n	8000b50 <DMA2_Stream3_IRQHandler+0x48>
 8000b40:	6c1b      	ldr	r3, [r3, #64]	@ 0x40
 8000b42:	b12b      	cbz	r3, 8000b50 <DMA2_Stream3_IRQHandler+0x48>
 8000b44:	4798      	blx	r3
 8000b46:	4a28      	ldr	r2, [pc, #160]	@ (8000be8 <DMA2_Stream3_IRQHandler+0xe0>)
 8000b48:	6893      	ldr	r3, [r2, #8]
 8000b4a:	f043 7380 	orr.w	r3, r3, #16777216	@ 0x1000000
 8000b4e:	6093      	str	r3, [r2, #8]
 8000b50:	6823      	ldr	r3, [r4, #0]
 8000b52:	0199      	lsls	r1, r3, #6
 8000b54:	d50c      	bpl.n	8000b70 <DMA2_Stream3_IRQHandler+0x68>
 8000b56:	4b26      	ldr	r3, [pc, #152]	@ (8000bf0 <DMA2_Stream3_IRQHandler+0xe8>)
 8000b58:	681b      	ldr	r3, [r3, #0]
 8000b5a:	69da      	ldr	r2, [r3, #28]
 8000b5c:	0752      	lsls	r2, r2, #29
 8000b5e:	d507      	bpl.n	8000b70 <DMA2_Stream3_IRQHandler+0x68>
 8000b60:	6c5b      	ldr	r3, [r3, #68]	@ 0x44
 8000b62:	b12b      	cbz	r3, 8000b70 <DMA2_Stream3_IRQHandler+0x68>
 8000b64:	4798      	blx	r3
 8000b66:	4a20      	ldr	r2, [pc, #128]	@ (8000be8 <DMA2_Stream3_IRQHandler+0xe0>)
 8000b68:	6893      	ldr	r3, [r2, #8]
 8000b6a:	f043 7300 	orr.w	r3, r3, #33554432	@ 0x2000000
 8000b6e:	6093      	str	r3, [r2, #8]
 8000b70:	6823      	ldr	r3, [r4, #0]
 8000b72:	015b      	lsls	r3, r3, #5
 8000b74:	d518      	bpl.n	8000ba8 <DMA2_Stream3_IRQHandler+0xa0>
 8000b76:	4d1e      	ldr	r5, [pc, #120]	@ (8000bf0 <DMA2_Stream3_IRQHandler+0xe8>)
 8000b78:	682b      	ldr	r3, [r5, #0]
 8000b7a:	69da      	ldr	r2, [r3, #28]
 8000b7c:	0716      	lsls	r6, r2, #28
 8000b7e:	d513      	bpl.n	8000ba8 <DMA2_Stream3_IRQHandler+0xa0>
 8000b80:	6c9b      	ldr	r3, [r3, #72]	@ 0x48
 8000b82:	b18b      	cbz	r3, 8000ba8 <DMA2_Stream3_IRQHandler+0xa0>
 8000b84:	4798      	blx	r3
 8000b86:	4a18      	ldr	r2, [pc, #96]	@ (8000be8 <DMA2_Stream3_IRQHandler+0xe0>)
 8000b88:	6893      	ldr	r3, [r2, #8]
 8000b8a:	f043 6380 	orr.w	r3, r3, #67108864	@ 0x4000000
 8000b8e:	6093      	str	r3, [r2, #8]
 8000b90:	682b      	ldr	r3, [r5, #0]
 8000b92:	6b9a      	ldr	r2, [r3, #56]	@ 0x38
 8000b94:	f5b2 2f80 	cmp.w	r2, #262144	@ 0x40000
 8000b98:	d106      	bne.n	8000ba8 <DMA2_Stream3_IRQHandler+0xa0>
 8000b9a:	685a      	ldr	r2, [r3, #4]
 8000b9c:	6812      	ldr	r2, [r2, #0]
 8000b9e:	0355      	lsls	r5, r2, #13
 8000ba0:	bf4c      	ite	mi
 8000ba2:	6d1b      	ldrmi	r3, [r3, #80]	@ 0x50
 8000ba4:	6d5b      	ldrpl	r3, [r3, #84]	@ 0x54
 8000ba6:	4798      	blx	r3
 8000ba8:	6823      	ldr	r3, [r4, #0]
 8000baa:	0118      	lsls	r0, r3, #4
 8000bac:	d51a      	bpl.n	8000be4 <DMA2_Stream3_IRQHandler+0xdc>
 8000bae:	4c10      	ldr	r4, [pc, #64]	@ (8000bf0 <DMA2_Stream3_IRQHandler+0xe8>)
 8000bb0:	6823      	ldr	r3, [r4, #0]
 8000bb2:	69da      	ldr	r2, [r3, #28]
 8000bb4:	06d1      	lsls	r1, r2, #27
 8000bb6:	d515      	bpl.n	8000be4 <DMA2_Stream3_IRQHandler+0xdc>
 8000bb8:	6cdb      	ldr	r3, [r3, #76]	@ 0x4c
 8000bba:	b19b      	cbz	r3, 8000be4 <DMA2_Stream3_IRQHandler+0xdc>
 8000bbc:	4798      	blx	r3
 8000bbe:	4a0a      	ldr	r2, [pc, #40]	@ (8000be8 <DMA2_Stream3_IRQHandler+0xe0>)
 8000bc0:	6893      	ldr	r3, [r2, #8]
 8000bc2:	f043 6300 	orr.w	r3, r3, #134217728	@ 0x8000000
 8000bc6:	6093      	str	r3, [r2, #8]
 8000bc8:	6823      	ldr	r3, [r4, #0]
 8000bca:	6b9a      	ldr	r2, [r3, #56]	@ 0x38
 8000bcc:	f5b2 2f80 	cmp.w	r2, #262144	@ 0x40000
 8000bd0:	d108      	bne.n	8000be4 <DMA2_Stream3_IRQHandler+0xdc>
 8000bd2:	685a      	ldr	r2, [r3, #4]
 8000bd4:	6812      	ldr	r2, [r2, #0]
 8000bd6:	0352      	lsls	r2, r2, #13
 8000bd8:	e8bd 4070 	ldmia.w	sp!, {r4, r5, r6, lr}
 8000bdc:	bf4c      	ite	mi
 8000bde:	6d1b      	ldrmi	r3, [r3, #80]	@ 0x50
 8000be0:	6d5b      	ldrpl	r3, [r3, #84]	@ 0x54
 8000be2:	4718      	bx	r3
 8000be4:	bd70      	pop	{r4, r5, r6, pc}
 8000be6:	bf00      	nop
 8000be8:	40026400 	.word	0x40026400
 8000bec:	20000034 	.word	0x20000034
 8000bf0:	20000048 	.word	0x20000048

08000bf4 <DMA2_Stream4_IRQHandler>:
 8000bf4:	b570      	push	{r4, r5, r6, lr}
 8000bf6:	4d30      	ldr	r5, [pc, #192]	@ (8000cb8 <DMA2_Stream4_IRQHandler+0xc4>)
 8000bf8:	4c30      	ldr	r4, [pc, #192]	@ (8000cbc <DMA2_Stream4_IRQHandler+0xc8>)
 8000bfa:	686b      	ldr	r3, [r5, #4]
 8000bfc:	6023      	str	r3, [r4, #0]
 8000bfe:	6823      	ldr	r3, [r4, #0]
 8000c00:	07da      	lsls	r2, r3, #31
 8000c02:	d508      	bpl.n	8000c16 <DMA2_Stream4_IRQHandler+0x22>
 8000c04:	4b2e      	ldr	r3, [pc, #184]	@ (8000cc0 <DMA2_Stream4_IRQHandler+0xcc>)
 8000c06:	681b      	ldr	r3, [r3, #0]
 8000c08:	6bdb      	ldr	r3, [r3, #60]	@ 0x3c
 8000c0a:	b123      	cbz	r3, 8000c16 <DMA2_Stream4_IRQHandler+0x22>
 8000c0c:	4798      	blx	r3
 8000c0e:	68ab      	ldr	r3, [r5, #8]
 8000c10:	f043 0340 	orr.w	r3, r3, #64	@ 0x40
 8000c14:	60ab      	str	r3, [r5, #8]
 8000c16:	6823      	ldr	r3, [r4, #0]
 8000c18:	075b      	lsls	r3, r3, #29
 8000c1a:	d509      	bpl.n	8000c30 <DMA2_Stream4_IRQHandler+0x3c>
 8000c1c:	4b28      	ldr	r3, [pc, #160]	@ (8000cc0 <DMA2_Stream4_IRQHandler+0xcc>)
 8000c1e:	681b      	ldr	r3, [r3, #0]
 8000c20:	6c1b      	ldr	r3, [r3, #64]	@ 0x40
 8000c22:	b12b      	cbz	r3, 8000c30 <DMA2_Stream4_IRQHandler+0x3c>
 8000c24:	4798      	blx	r3
 8000c26:	4a24      	ldr	r2, [pc, #144]	@ (8000cb8 <DMA2_Stream4_IRQHandler+0xc4>)
 8000c28:	68d3      	ldr	r3, [r2, #12]
 8000c2a:	f043 0304 	orr.w	r3, r3, #4
 8000c2e:	60d3      	str	r3, [r2, #12]
 8000c30:	6823      	ldr	r3, [r4, #0]
 8000c32:	071e      	lsls	r6, r3, #28
 8000c34:	d509      	bpl.n	8000c4a <DMA2_Stream4_IRQHandler+0x56>
 8000c36:	4b22      	ldr	r3, [pc, #136]	@ (8000cc0 <DMA2_Stream4_IRQHandler+0xcc>)
 8000c38:	681b      	ldr	r3, [r3, #0]
 8000c3a:	6c5b      	ldr	r3, [r3, #68]	@ 0x44
 8000c3c:	b12b      	cbz	r3, 8000c4a <DMA2_Stream4_IRQHandler+0x56>
 8000c3e:	4798      	blx	r3
 8000c40:	4a1d      	ldr	r2, [pc, #116]	@ (8000cb8 <DMA2_Stream4_IRQHandler+0xc4>)
 8000c42:	68d3      	ldr	r3, [r2, #12]
 8000c44:	f043 0308 	orr.w	r3, r3, #8
 8000c48:	60d3      	str	r3, [r2, #12]
 8000c4a:	6823      	ldr	r3, [r4, #0]
 8000c4c:	06dd      	lsls	r5, r3, #27
 8000c4e:	d515      	bpl.n	8000c7c <DMA2_Stream4_IRQHandler+0x88>
 8000c50:	4d1b      	ldr	r5, [pc, #108]	@ (8000cc0 <DMA2_Stream4_IRQHandler+0xcc>)
 8000c52:	682b      	ldr	r3, [r5, #0]
 8000c54:	6c9b      	ldr	r3, [r3, #72]	@ 0x48
 8000c56:	b18b      	cbz	r3, 8000c7c <DMA2_Stream4_IRQHandler+0x88>
 8000c58:	4798      	blx	r3
 8000c5a:	4a17      	ldr	r2, [pc, #92]	@ (8000cb8 <DMA2_Stream4_IRQHandler+0xc4>)
 8000c5c:	68d3      	ldr	r3, [r2, #12]
 8000c5e:	f043 0310 	orr.w	r3, r3, #16
 8000c62:	60d3      	str	r3, [r2, #12]
 8000c64:	682b      	ldr	r3, [r5, #0]
 8000c66:	6b9a      	ldr	r2, [r3, #56]	@ 0x38
 8000c68:	f5b2 2f80 	cmp.w	r2, #262144	@ 0x40000
 8000c6c:	d106      	bne.n	8000c7c <DMA2_Stream4_IRQHandler+0x88>
 8000c6e:	685a      	ldr	r2, [r3, #4]
 8000c70:	6812      	ldr	r2, [r2, #0]
 8000c72:	0350      	lsls	r0, r2, #13
 8000c74:	bf4c      	ite	mi
 8000c76:	6d1b      	ldrmi	r3, [r3, #80]	@ 0x50
 8000c78:	6d5b      	ldrpl	r3, [r3, #84]	@ 0x54
 8000c7a:	4798      	blx	r3
 8000c7c:	6823      	ldr	r3, [r4, #0]
 8000c7e:	0699      	lsls	r1, r3, #26
 8000c80:	d518      	bpl.n	8000cb4 <DMA2_Stream4_IRQHandler+0xc0>
 8000c82:	4c0f      	ldr	r4, [pc, #60]	@ (8000cc0 <DMA2_Stream4_IRQHandler+0xcc>)
 8000c84:	6823      	ldr	r3, [r4, #0]
 8000c86:	6cda      	ldr	r2, [r3, #76]	@ 0x4c
 8000c88:	b1a2      	cbz	r2, 8000cb4 <DMA2_Stream4_IRQHandler+0xc0>
 8000c8a:	6c9b      	ldr	r3, [r3, #72]	@ 0x48
 8000c8c:	4798      	blx	r3
 8000c8e:	4a0a      	ldr	r2, [pc, #40]	@ (8000cb8 <DMA2_Stream4_IRQHandler+0xc4>)
 8000c90:	68d3      	ldr	r3, [r2, #12]
 8000c92:	f043 0320 	orr.w	r3, r3, #32
 8000c96:	60d3      	str	r3, [r2, #12]
 8000c98:	6823      	ldr	r3, [r4, #0]
 8000c9a:	6b9a      	ldr	r2, [r3, #56]	@ 0x38
 8000c9c:	f5b2 2f80 	cmp.w	r2, #262144	@ 0x40000
 8000ca0:	d108      	bne.n	8000cb4 <DMA2_Stream4_IRQHandler+0xc0>
 8000ca2:	685a      	ldr	r2, [r3, #4]
 8000ca4:	6812      	ldr	r2, [r2, #0]
 8000ca6:	0352      	lsls	r2, r2, #13
 8000ca8:	e8bd 4070 	ldmia.w	sp!, {r4, r5, r6, lr}
 8000cac:	bf4c      	ite	mi
 8000cae:	6d1b      	ldrmi	r3, [r3, #80]	@ 0x50
 8000cb0:	6d5b      	ldrpl	r3, [r3, #84]	@ 0x54
 8000cb2:	4718      	bx	r3
 8000cb4:	bd70      	pop	{r4, r5, r6, pc}
 8000cb6:	bf00      	nop
 8000cb8:	40026400 	.word	0x40026400
 8000cbc:	20000030 	.word	0x20000030
 8000cc0:	20000044 	.word	0x20000044

08000cc4 <DMA2_Stream5_IRQHandler>:
 8000cc4:	b570      	push	{r4, r5, r6, lr}
 8000cc6:	4d30      	ldr	r5, [pc, #192]	@ (8000d88 <DMA2_Stream5_IRQHandler+0xc4>)
 8000cc8:	4c30      	ldr	r4, [pc, #192]	@ (8000d8c <DMA2_Stream5_IRQHandler+0xc8>)
 8000cca:	686b      	ldr	r3, [r5, #4]
 8000ccc:	6023      	str	r3, [r4, #0]
 8000cce:	6823      	ldr	r3, [r4, #0]
 8000cd0:	065a      	lsls	r2, r3, #25
 8000cd2:	d508      	bpl.n	8000ce6 <DMA2_Stream5_IRQHandler+0x22>
 8000cd4:	4b2e      	ldr	r3, [pc, #184]	@ (8000d90 <DMA2_Stream5_IRQHandler+0xcc>)
 8000cd6:	681b      	ldr	r3, [r3, #0]
 8000cd8:	6bdb      	ldr	r3, [r3, #60]	@ 0x3c
 8000cda:	b123      	cbz	r3, 8000ce6 <DMA2_Stream5_IRQHandler+0x22>
 8000cdc:	4798      	blx	r3
 8000cde:	68eb      	ldr	r3, [r5, #12]
 8000ce0:	f043 0340 	orr.w	r3, r3, #64	@ 0x40
 8000ce4:	60eb      	str	r3, [r5, #12]
 8000ce6:	6823      	ldr	r3, [r4, #0]
 8000ce8:	05db      	lsls	r3, r3, #23
 8000cea:	d509      	bpl.n	8000d00 <DMA2_Stream5_IRQHandler+0x3c>
 8000cec:	4b28      	ldr	r3, [pc, #160]	@ (8000d90 <DMA2_Stream5_IRQHandler+0xcc>)
 8000cee:	681b      	ldr	r3, [r3, #0]
 8000cf0:	6c1b      	ldr	r3, [r3, #64]	@ 0x40
 8000cf2:	b12b      	cbz	r3, 8000d00 <DMA2_Stream5_IRQHandler+0x3c>
 8000cf4:	4798      	blx	r3
 8000cf6:	4a24      	ldr	r2, [pc, #144]	@ (8000d88 <DMA2_Stream5_IRQHandler+0xc4>)
 8000cf8:	68d3      	ldr	r3, [r2, #12]
 8000cfa:	f443 7380 	orr.w	r3, r3, #256	@ 0x100
 8000cfe:	60d3      	str	r3, [r2, #12]
 8000d00:	6823      	ldr	r3, [r4, #0]
 8000d02:	059e      	lsls	r6, r3, #22
 8000d04:	d509      	bpl.n	8000d1a <DMA2_Stream5_IRQHandler+0x56>
 8000d06:	4b22      	ldr	r3, [pc, #136]	@ (8000d90 <DMA2_Stream5_IRQHandler+0xcc>)
 8000d08:	681b      	ldr	r3, [r3, #0]
 8000d0a:	6c5b      	ldr	r3, [r3, #68]	@ 0x44
 8000d0c:	b12b      	cbz	r3, 8000d1a <DMA2_Stream5_IRQHandler+0x56>
 8000d0e:	4798      	blx	r3
 8000d10:	4a1d      	ldr	r2, [pc, #116]	@ (8000d88 <DMA2_Stream5_IRQHandler+0xc4>)
 8000d12:	68d3      	ldr	r3, [r2, #12]
 8000d14:	f443 7300 	orr.w	r3, r3, #512	@ 0x200
 8000d18:	60d3      	str	r3, [r2, #12]
 8000d1a:	6823      	ldr	r3, [r4, #0]
 8000d1c:	055d      	lsls	r5, r3, #21
 8000d1e:	d515      	bpl.n	8000d4c <DMA2_Stream5_IRQHandler+0x88>
 8000d20:	4d1b      	ldr	r5, [pc, #108]	@ (8000d90 <DMA2_Stream5_IRQHandler+0xcc>)
 8000d22:	682b      	ldr	r3, [r5, #0]
 8000d24:	6c9b      	ldr	r3, [r3, #72]	@ 0x48
 8000d26:	b18b      	cbz	r3, 8000d4c <DMA2_Stream5_IRQHandler+0x88>
 8000d28:	4798      	blx	r3
 8000d2a:	4a17      	ldr	r2, [pc, #92]	@ (8000d88 <DMA2_Stream5_IRQHandler+0xc4>)
 8000d2c:	68d3      	ldr	r3, [r2, #12]
 8000d2e:	f443 6380 	orr.w	r3, r3, #1024	@ 0x400
 8000d32:	60d3      	str	r3, [r2, #12]
 8000d34:	682b      	ldr	r3, [r5, #0]
 8000d36:	6b9a      	ldr	r2, [r3, #56]	@ 0x38
 8000d38:	f5b2 2f80 	cmp.w	r2, #262144	@ 0x40000
 8000d3c:	d106      	bne.n	8000d4c <DMA2_Stream5_IRQHandler+0x88>
 8000d3e:	685a      	ldr	r2, [r3, #4]
 8000d40:	6812      	ldr	r2, [r2, #0]
 8000d42:	0350      	lsls	r0, r2, #13
 8000d44:	bf4c      	ite	mi
 8000d46:	6d1b      	ldrmi	r3, [r3, #80]	@ 0x50
 8000d48:	6d5b      	ldrpl	r3, [r3, #84]	@ 0x54
 8000d4a:	4798      	blx	r3
 8000d4c:	6823      	ldr	r3, [r4, #0]
 8000d4e:	0519      	lsls	r1, r3, #20
 8000d50:	d518      	bpl.n	8000d84 <DMA2_Stream5_IRQHandler+0xc0>
 8000d52:	4c0f      	ldr	r4, [pc, #60]	@ (8000d90 <DMA2_Stream5_IRQHandler+0xcc>)
 8000d54:	6823      	ldr	r3, [r4, #0]
 8000d56:	6cda      	ldr	r2, [r3, #76]	@ 0x4c
 8000d58:	b1a2      	cbz	r2, 8000d84 <DMA2_Stream5_IRQHandler+0xc0>
 8000d5a:	6c9b      	ldr	r3, [r3, #72]	@ 0x48
 8000d5c:	4798      	blx	r3
 8000d5e:	4a0a      	ldr	r2, [pc, #40]	@ (8000d88 <DMA2_Stream5_IRQHandler+0xc4>)
 8000d60:	68d3      	ldr	r3, [r2, #12]
 8000d62:	f443 6300 	orr.w	r3, r3, #2048	@ 0x800
 8000d66:	60d3      	str	r3, [r2, #12]
 8000d68:	6823      	ldr	r3, [r4, #0]
 8000d6a:	6b9a      	ldr	r2, [r3, #56]	@ 0x38
 8000d6c:	f5b2 2f80 	cmp.w	r2, #262144	@ 0x40000
 8000d70:	d108      	bne.n	8000d84 <DMA2_Stream5_IRQHandler+0xc0>
 8000d72:	685a      	ldr	r2, [r3, #4]
 8000d74:	6812      	ldr	r2, [r2, #0]
 8000d76:	0352      	lsls	r2, r2, #13
 8000d78:	e8bd 4070 	ldmia.w	sp!, {r4, r5, r6, lr}
 8000d7c:	bf4c      	ite	mi
 8000d7e:	6d1b      	ldrmi	r3, [r3, #80]	@ 0x50
 8000d80:	6d5b      	ldrpl	r3, [r3, #84]	@ 0x54
 8000d82:	4718      	bx	r3
 8000d84:	bd70      	pop	{r4, r5, r6, pc}
 8000d86:	bf00      	nop
 8000d88:	40026400 	.word	0x40026400
 8000d8c:	20000030 	.word	0x20000030
 8000d90:	20000040 	.word	0x20000040

08000d94 <DMA2_Stream6_IRQHandler>:
 8000d94:	b570      	push	{r4, r5, r6, lr}
 8000d96:	4d30      	ldr	r5, [pc, #192]	@ (8000e58 <DMA2_Stream6_IRQHandler+0xc4>)
 8000d98:	4c30      	ldr	r4, [pc, #192]	@ (8000e5c <DMA2_Stream6_IRQHandler+0xc8>)
 8000d9a:	686b      	ldr	r3, [r5, #4]
 8000d9c:	6023      	str	r3, [r4, #0]
 8000d9e:	6823      	ldr	r3, [r4, #0]
 8000da0:	03da      	lsls	r2, r3, #15
 8000da2:	d508      	bpl.n	8000db6 <DMA2_Stream6_IRQHandler+0x22>
 8000da4:	4b2e      	ldr	r3, [pc, #184]	@ (8000e60 <DMA2_Stream6_IRQHandler+0xcc>)
 8000da6:	681b      	ldr	r3, [r3, #0]
 8000da8:	6bdb      	ldr	r3, [r3, #60]	@ 0x3c
 8000daa:	b123      	cbz	r3, 8000db6 <DMA2_Stream6_IRQHandler+0x22>
 8000dac:	4798      	blx	r3
 8000dae:	68eb      	ldr	r3, [r5, #12]
 8000db0:	f443 3380 	orr.w	r3, r3, #65536	@ 0x10000
 8000db4:	60eb      	str	r3, [r5, #12]
 8000db6:	6823      	ldr	r3, [r4, #0]
 8000db8:	035b      	lsls	r3, r3, #13
 8000dba:	d509      	bpl.n	8000dd0 <DMA2_Stream6_IRQHandler+0x3c>
 8000dbc:	4b28      	ldr	r3, [pc, #160]	@ (8000e60 <DMA2_Stream6_IRQHandler+0xcc>)
 8000dbe:	681b      	ldr	r3, [r3, #0]
 8000dc0:	6c1b      	ldr	r3, [r3, #64]	@ 0x40
 8000dc2:	b12b      	cbz	r3, 8000dd0 <DMA2_Stream6_IRQHandler+0x3c>
 8000dc4:	4798      	blx	r3
 8000dc6:	4a24      	ldr	r2, [pc, #144]	@ (8000e58 <DMA2_Stream6_IRQHandler+0xc4>)
 8000dc8:	68d3      	ldr	r3, [r2, #12]
 8000dca:	f443 2380 	orr.w	r3, r3, #262144	@ 0x40000
 8000dce:	60d3      	str	r3, [r2, #12]
 8000dd0:	6823      	ldr	r3, [r4, #0]
 8000dd2:	031e      	lsls	r6, r3, #12
 8000dd4:	d509      	bpl.n	8000dea <DMA2_Stream6_IRQHandler+0x56>
 8000dd6:	4b22      	ldr	r3, [pc, #136]	@ (8000e60 <DMA2_Stream6_IRQHandler+0xcc>)
 8000dd8:	681b      	ldr	r3, [r3, #0]
 8000dda:	6c5b      	ldr	r3, [r3, #68]	@ 0x44
 8000ddc:	b12b      	cbz	r3, 8000dea <DMA2_Stream6_IRQHandler+0x56>
 8000dde:	4798      	blx	r3
 8000de0:	4a1d      	ldr	r2, [pc, #116]	@ (8000e58 <DMA2_Stream6_IRQHandler+0xc4>)
 8000de2:	68d3      	ldr	r3, [r2, #12]
 8000de4:	f443 2300 	orr.w	r3, r3, #524288	@ 0x80000
 8000de8:	60d3      	str	r3, [r2, #12]
 8000dea:	6823      	ldr	r3, [r4, #0]
 8000dec:	02dd      	lsls	r5, r3, #11
 8000dee:	d515      	bpl.n	8000e1c <DMA2_Stream6_IRQHandler+0x88>
 8000df0:	4d1b      	ldr	r5, [pc, #108]	@ (8000e60 <DMA2_Stream6_IRQHandler+0xcc>)
 8000df2:	682b      	ldr	r3, [r5, #0]
 8000df4:	6c9b      	ldr	r3, [r3, #72]	@ 0x48
 8000df6:	b18b      	cbz	r3, 8000e1c <DMA2_Stream6_IRQHandler+0x88>
 8000df8:	4798      	blx	r3
 8000dfa:	4a17      	ldr	r2, [pc, #92]	@ (8000e58 <DMA2_Stream6_IRQHandler+0xc4>)
 8000dfc:	68d3      	ldr	r3, [r2, #12]
 8000dfe:	f443 1380 	orr.w	r3, r3, #1048576	@ 0x100000
 8000e02:	60d3      	str	r3, [r2, #12]
 8000e04:	682b      	ldr	r3, [r5, #0]
 8000e06:	6b9a      	ldr	r2, [r3, #56]	@ 0x38
 8000e08:	f5b2 2f80 	cmp.w	r2, #262144	@ 0x40000
 8000e0c:	d106      	bne.n	8000e1c <DMA2_Stream6_IRQHandler+0x88>
 8000e0e:	685a      	ldr	r2, [r3, #4]
 8000e10:	6812      	ldr	r2, [r2, #0]
 8000e12:	0350      	lsls	r0, r2, #13
 8000e14:	bf4c      	ite	mi
 8000e16:	6d1b      	ldrmi	r3, [r3, #80]	@ 0x50
 8000e18:	6d5b      	ldrpl	r3, [r3, #84]	@ 0x54
 8000e1a:	4798      	blx	r3
 8000e1c:	6823      	ldr	r3, [r4, #0]
 8000e1e:	0299      	lsls	r1, r3, #10
 8000e20:	d518      	bpl.n	8000e54 <DMA2_Stream6_IRQHandler+0xc0>
 8000e22:	4c0f      	ldr	r4, [pc, #60]	@ (8000e60 <DMA2_Stream6_IRQHandler+0xcc>)
 8000e24:	6823      	ldr	r3, [r4, #0]
 8000e26:	6cda      	ldr	r2, [r3, #76]	@ 0x4c
 8000e28:	b1a2      	cbz	r2, 8000e54 <DMA2_Stream6_IRQHandler+0xc0>
 8000e2a:	6c9b      	ldr	r3, [r3, #72]	@ 0x48
 8000e2c:	4798      	blx	r3
 8000e2e:	4a0a      	ldr	r2, [pc, #40]	@ (8000e58 <DMA2_Stream6_IRQHandler+0xc4>)
 8000e30:	68d3      	ldr	r3, [r2, #12]
 8000e32:	f443 1300 	orr.w	r3, r3, #2097152	@ 0x200000
 8000e36:	60d3      	str	r3, [r2, #12]
 8000e38:	6823      	ldr	r3, [r4, #0]
 8000e3a:	6b9a      	ldr	r2, [r3, #56]	@ 0x38
 8000e3c:	f5b2 2f80 	cmp.w	r2, #262144	@ 0x40000
 8000e40:	d108      	bne.n	8000e54 <DMA2_Stream6_IRQHandler+0xc0>
 8000e42:	685a      	ldr	r2, [r3, #4]
 8000e44:	6812      	ldr	r2, [r2, #0]
 8000e46:	0352      	lsls	r2, r2, #13
 8000e48:	e8bd 4070 	ldmia.w	sp!, {r4, r5, r6, lr}
 8000e4c:	bf4c      	ite	mi
 8000e4e:	6d1b      	ldrmi	r3, [r3, #80]	@ 0x50
 8000e50:	6d5b      	ldrpl	r3, [r3, #84]	@ 0x54
 8000e52:	4718      	bx	r3
 8000e54:	bd70      	pop	{r4, r5, r6, pc}
 8000e56:	bf00      	nop
 8000e58:	40026400 	.word	0x40026400
 8000e5c:	20000030 	.word	0x20000030
 8000e60:	2000003c 	.word	0x2000003c

08000e64 <DMA2_Stream7_IRQHandler>:
 8000e64:	b570      	push	{r4, r5, r6, lr}
 8000e66:	4d30      	ldr	r5, [pc, #192]	@ (8000f28 <DMA2_Stream7_IRQHandler+0xc4>)
 8000e68:	4c30      	ldr	r4, [pc, #192]	@ (8000f2c <DMA2_Stream7_IRQHandler+0xc8>)
 8000e6a:	686b      	ldr	r3, [r5, #4]
 8000e6c:	6023      	str	r3, [r4, #0]
 8000e6e:	6823      	ldr	r3, [r4, #0]
 8000e70:	025a      	lsls	r2, r3, #9
 8000e72:	d508      	bpl.n	8000e86 <DMA2_Stream7_IRQHandler+0x22>
 8000e74:	4b2e      	ldr	r3, [pc, #184]	@ (8000f30 <DMA2_Stream7_IRQHandler+0xcc>)
 8000e76:	681b      	ldr	r3, [r3, #0]
 8000e78:	6bdb      	ldr	r3, [r3, #60]	@ 0x3c
 8000e7a:	b123      	cbz	r3, 8000e86 <DMA2_Stream7_IRQHandler+0x22>
 8000e7c:	4798      	blx	r3
 8000e7e:	68eb      	ldr	r3, [r5, #12]
 8000e80:	f443 0380 	orr.w	r3, r3, #4194304	@ 0x400000
 8000e84:	60eb      	str	r3, [r5, #12]
 8000e86:	6823      	ldr	r3, [r4, #0]
 8000e88:	01db      	lsls	r3, r3, #7
 8000e8a:	d509      	bpl.n	8000ea0 <DMA2_Stream7_IRQHandler+0x3c>
 8000e8c:	4b28      	ldr	r3, [pc, #160]	@ (8000f30 <DMA2_Stream7_IRQHandler+0xcc>)
 8000e8e:	681b      	ldr	r3, [r3, #0]
 8000e90:	6c1b      	ldr	r3, [r3, #64]	@ 0x40
 8000e92:	b12b      	cbz	r3, 8000ea0 <DMA2_Stream7_IRQHandler+0x3c>
 8000e94:	4798      	blx	r3
 8000e96:	4a24      	ldr	r2, [pc, #144]	@ (8000f28 <DMA2_Stream7_IRQHandler+0xc4>)
 8000e98:	68d3      	ldr	r3, [r2, #12]
 8000e9a:	f043 7380 	orr.w	r3, r3, #16777216	@ 0x1000000
 8000e9e:	60d3      	str	r3, [r2, #12]
 8000ea0:	6823      	ldr	r3, [r4, #0]
 8000ea2:	019e      	lsls	r6, r3, #6
 8000ea4:	d509      	bpl.n	8000eba <DMA2_Stream7_IRQHandler+0x56>
 8000ea6:	4b22      	ldr	r3, [pc, #136]	@ (8000f30 <DMA2_Stream7_IRQHandler+0xcc>)
 8000ea8:	681b      	ldr	r3, [r3, #0]
 8000eaa:	6c5b      	ldr	r3, [r3, #68]	@ 0x44
 8000eac:	b12b      	cbz	r3, 8000eba <DMA2_Stream7_IRQHandler+0x56>
 8000eae:	4798      	blx	r3
 8000eb0:	4a1d      	ldr	r2, [pc, #116]	@ (8000f28 <DMA2_Stream7_IRQHandler+0xc4>)
 8000eb2:	68d3      	ldr	r3, [r2, #12]
 8000eb4:	f043 7300 	orr.w	r3, r3, #33554432	@ 0x2000000
 8000eb8:	60d3      	str	r3, [r2, #12]
 8000eba:	6823      	ldr	r3, [r4, #0]
 8000ebc:	015d      	lsls	r5, r3, #5
 8000ebe:	d515      	bpl.n	8000eec <DMA2_Stream7_IRQHandler+0x88>
 8000ec0:	4d1b      	ldr	r5, [pc, #108]	@ (8000f30 <DMA2_Stream7_IRQHandler+0xcc>)
 8000ec2:	682b      	ldr	r3, [r5, #0]
 8000ec4:	6c9b      	ldr	r3, [r3, #72]	@ 0x48
 8000ec6:	b18b      	cbz	r3, 8000eec <DMA2_Stream7_IRQHandler+0x88>
 8000ec8:	4798      	blx	r3
 8000eca:	4a17      	ldr	r2, [pc, #92]	@ (8000f28 <DMA2_Stream7_IRQHandler+0xc4>)
 8000ecc:	68d3      	ldr	r3, [r2, #12]
 8000ece:	f043 6380 	orr.w	r3, r3, #67108864	@ 0x4000000
 8000ed2:	60d3      	str	r3, [r2, #12]
 8000ed4:	682b      	ldr	r3, [r5, #0]
 8000ed6:	6b9a      	ldr	r2, [r3, #56]	@ 0x38
 8000ed8:	f5b2 2f80 	cmp.w	r2, #262144	@ 0x40000
 8000edc:	d106      	bne.n	8000eec <DMA2_Stream7_IRQHandler+0x88>
 8000ede:	685a      	ldr	r2, [r3, #4]
 8000ee0:	6812      	ldr	r2, [r2, #0]
 8000ee2:	0350      	lsls	r0, r2, #13
 8000ee4:	bf4c      	ite	mi
 8000ee6:	6d1b      	ldrmi	r3, [r3, #80]	@ 0x50
 8000ee8:	6d5b      	ldrpl	r3, [r3, #84]	@ 0x54
 8000eea:	4798      	blx	r3
 8000eec:	6823      	ldr	r3, [r4, #0]
 8000eee:	0119      	lsls	r1, r3, #4
 8000ef0:	d518      	bpl.n	8000f24 <DMA2_Stream7_IRQHandler+0xc0>
 8000ef2:	4c0f      	ldr	r4, [pc, #60]	@ (8000f30 <DMA2_Stream7_IRQHandler+0xcc>)
 8000ef4:	6823      	ldr	r3, [r4, #0]
 8000ef6:	6cda      	ldr	r2, [r3, #76]	@ 0x4c
 8000ef8:	b1a2      	cbz	r2, 8000f24 <DMA2_Stream7_IRQHandler+0xc0>
 8000efa:	6c9b      	ldr	r3, [r3, #72]	@ 0x48
 8000efc:	4798      	blx	r3
 8000efe:	4a0a      	ldr	r2, [pc, #40]	@ (8000f28 <DMA2_Stream7_IRQHandler+0xc4>)
 8000f00:	68d3      	ldr	r3, [r2, #12]
 8000f02:	f043 6300 	orr.w	r3, r3, #134217728	@ 0x8000000
 8000f06:	60d3      	str	r3, [r2, #12]
 8000f08:	6823      	ldr	r3, [r4, #0]
 8000f0a:	6b9a      	ldr	r2, [r3, #56]	@ 0x38
 8000f0c:	f5b2 2f80 	cmp.w	r2, #262144	@ 0x40000
 8000f10:	d108      	bne.n	8000f24 <DMA2_Stream7_IRQHandler+0xc0>
 8000f12:	685a      	ldr	r2, [r3, #4]
 8000f14:	6812      	ldr	r2, [r2, #0]
 8000f16:	0352      	lsls	r2, r2, #13
 8000f18:	e8bd 4070 	ldmia.w	sp!, {r4, r5, r6, lr}
 8000f1c:	bf4c      	ite	mi
 8000f1e:	6d1b      	ldrmi	r3, [r3, #80]	@ 0x50
 8000f20:	6d5b      	ldrpl	r3, [r3, #84]	@ 0x54
 8000f22:	4718      	bx	r3
 8000f24:	bd70      	pop	{r4, r5, r6, pc}
 8000f26:	bf00      	nop
 8000f28:	40026400 	.word	0x40026400
 8000f2c:	20000030 	.word	0x20000030
 8000f30:	20000038 	.word	0x20000038

08000f34 <DMA_Clock_Enable>:
 8000f34:	6803      	ldr	r3, [r0, #0]
 8000f36:	4a09      	ldr	r2, [pc, #36]	@ (8000f5c <DMA_Clock_Enable+0x28>)
 8000f38:	4293      	cmp	r3, r2
 8000f3a:	d106      	bne.n	8000f4a <DMA_Clock_Enable+0x16>
 8000f3c:	f5a2 5220 	sub.w	r2, r2, #10240	@ 0x2800
 8000f40:	6b13      	ldr	r3, [r2, #48]	@ 0x30
 8000f42:	f443 1300 	orr.w	r3, r3, #2097152	@ 0x200000
 8000f46:	6313      	str	r3, [r2, #48]	@ 0x30
 8000f48:	4770      	bx	lr
 8000f4a:	4a05      	ldr	r2, [pc, #20]	@ (8000f60 <DMA_Clock_Enable+0x2c>)
 8000f4c:	4293      	cmp	r3, r2
 8000f4e:	d1fb      	bne.n	8000f48 <DMA_Clock_Enable+0x14>
 8000f50:	f5a2 5230 	sub.w	r2, r2, #11264	@ 0x2c00
 8000f54:	6b13      	ldr	r3, [r2, #48]	@ 0x30
 8000f56:	f443 0380 	orr.w	r3, r3, #4194304	@ 0x400000
 8000f5a:	e7f4      	b.n	8000f46 <DMA_Clock_Enable+0x12>
 8000f5c:	40026000 	.word	0x40026000
 8000f60:	40026400 	.word	0x40026400

08000f64 <DMA_Init>:
 8000f64:	b510      	push	{r4, lr}
 8000f66:	f7ff ffe5 	bl	8000f34 <DMA_Clock_Enable>
 8000f6a:	6843      	ldr	r3, [r0, #4]
 8000f6c:	681a      	ldr	r2, [r3, #0]
 8000f6e:	07d1      	lsls	r1, r2, #31
 8000f70:	4604      	mov	r4, r0
 8000f72:	d506      	bpl.n	8000f82 <DMA_Init+0x1e>
 8000f74:	681a      	ldr	r2, [r3, #0]
 8000f76:	f022 0201 	bic.w	r2, r2, #1
 8000f7a:	601a      	str	r2, [r3, #0]
 8000f7c:	681a      	ldr	r2, [r3, #0]
 8000f7e:	07d2      	lsls	r2, r2, #31
 8000f80:	d4fc      	bmi.n	8000f7c <DMA_Init+0x18>
 8000f82:	681a      	ldr	r2, [r3, #0]
 8000f84:	7a21      	ldrb	r1, [r4, #8]
 8000f86:	ea42 6241 	orr.w	r2, r2, r1, lsl #25
 8000f8a:	601a      	str	r2, [r3, #0]
 8000f8c:	681a      	ldr	r2, [r3, #0]
 8000f8e:	69a1      	ldr	r1, [r4, #24]
 8000f90:	430a      	orrs	r2, r1
 8000f92:	601a      	str	r2, [r3, #0]
 8000f94:	681a      	ldr	r2, [r3, #0]
 8000f96:	68e1      	ldr	r1, [r4, #12]
 8000f98:	430a      	orrs	r2, r1
 8000f9a:	601a      	str	r2, [r3, #0]
 8000f9c:	681a      	ldr	r2, [r3, #0]
 8000f9e:	6961      	ldr	r1, [r4, #20]
 8000fa0:	430a      	orrs	r2, r1
 8000fa2:	601a      	str	r2, [r3, #0]
 8000fa4:	681a      	ldr	r2, [r3, #0]
 8000fa6:	6aa1      	ldr	r1, [r4, #40]	@ 0x28
 8000fa8:	430a      	orrs	r2, r1
 8000faa:	601a      	str	r2, [r3, #0]
 8000fac:	681a      	ldr	r2, [r3, #0]
 8000fae:	6a61      	ldr	r1, [r4, #36]	@ 0x24
 8000fb0:	430a      	orrs	r2, r1
 8000fb2:	601a      	str	r2, [r3, #0]
 8000fb4:	681a      	ldr	r2, [r3, #0]
 8000fb6:	6921      	ldr	r1, [r4, #16]
 8000fb8:	430a      	orrs	r2, r1
 8000fba:	601a      	str	r2, [r3, #0]
 8000fbc:	69e2      	ldr	r2, [r4, #28]
 8000fbe:	2a00      	cmp	r2, #0
 8000fc0:	d029      	beq.n	8001016 <DMA_Init+0xb2>
 8000fc2:	0610      	lsls	r0, r2, #24
 8000fc4:	bf42      	ittt	mi
 8000fc6:	6959      	ldrmi	r1, [r3, #20]
 8000fc8:	4311      	orrmi	r1, r2
 8000fca:	6159      	strmi	r1, [r3, #20]
 8000fcc:	06d1      	lsls	r1, r2, #27
 8000fce:	bf42      	ittt	mi
 8000fd0:	6819      	ldrmi	r1, [r3, #0]
 8000fd2:	f041 0110 	orrmi.w	r1, r1, #16
 8000fd6:	6019      	strmi	r1, [r3, #0]
 8000fd8:	0710      	lsls	r0, r2, #28
 8000fda:	bf42      	ittt	mi
 8000fdc:	6819      	ldrmi	r1, [r3, #0]
 8000fde:	f041 0108 	orrmi.w	r1, r1, #8
 8000fe2:	6019      	strmi	r1, [r3, #0]
 8000fe4:	0751      	lsls	r1, r2, #29
 8000fe6:	bf42      	ittt	mi
 8000fe8:	6819      	ldrmi	r1, [r3, #0]
 8000fea:	f041 0104 	orrmi.w	r1, r1, #4
 8000fee:	6019      	strmi	r1, [r3, #0]
 8000ff0:	0792      	lsls	r2, r2, #30
 8000ff2:	bf48      	it	mi
 8000ff4:	681a      	ldrmi	r2, [r3, #0]
 8000ff6:	494b      	ldr	r1, [pc, #300]	@ (8001124 <DMA_Init+0x1c0>)
 8000ff8:	bf44      	itt	mi
 8000ffa:	f042 0202 	orrmi.w	r2, r2, #2
 8000ffe:	601a      	strmi	r2, [r3, #0]
 8001000:	6822      	ldr	r2, [r4, #0]
 8001002:	428a      	cmp	r2, r1
 8001004:	d14b      	bne.n	800109e <DMA_Init+0x13a>
 8001006:	4a48      	ldr	r2, [pc, #288]	@ (8001128 <DMA_Init+0x1c4>)
 8001008:	4293      	cmp	r3, r2
 800100a:	d117      	bne.n	800103c <DMA_Init+0xd8>
 800100c:	4b47      	ldr	r3, [pc, #284]	@ (800112c <DMA_Init+0x1c8>)
 800100e:	200b      	movs	r0, #11
 8001010:	601c      	str	r4, [r3, #0]
 8001012:	f7ff f8d9 	bl	80001c8 <__NVIC_EnableIRQ.part.0>
 8001016:	6863      	ldr	r3, [r4, #4]
 8001018:	8c22      	ldrh	r2, [r4, #32]
 800101a:	6819      	ldr	r1, [r3, #0]
 800101c:	430a      	orrs	r2, r1
 800101e:	601a      	str	r2, [r3, #0]
 8001020:	6819      	ldr	r1, [r3, #0]
 8001022:	8c62      	ldrh	r2, [r4, #34]	@ 0x22
 8001024:	430a      	orrs	r2, r1
 8001026:	601a      	str	r2, [r3, #0]
 8001028:	69a2      	ldr	r2, [r4, #24]
 800102a:	f5b2 7f80 	cmp.w	r2, #256	@ 0x100
 800102e:	d171      	bne.n	8001114 <DMA_Init+0x1b0>
 8001030:	681a      	ldr	r2, [r3, #0]
 8001032:	f442 7280 	orr.w	r2, r2, #256	@ 0x100
 8001036:	601a      	str	r2, [r3, #0]
 8001038:	2001      	movs	r0, #1
 800103a:	bd10      	pop	{r4, pc}
 800103c:	4a3c      	ldr	r2, [pc, #240]	@ (8001130 <DMA_Init+0x1cc>)
 800103e:	4293      	cmp	r3, r2
 8001040:	d103      	bne.n	800104a <DMA_Init+0xe6>
 8001042:	4b3c      	ldr	r3, [pc, #240]	@ (8001134 <DMA_Init+0x1d0>)
 8001044:	200c      	movs	r0, #12
 8001046:	601c      	str	r4, [r3, #0]
 8001048:	e7e3      	b.n	8001012 <DMA_Init+0xae>
 800104a:	4a3b      	ldr	r2, [pc, #236]	@ (8001138 <DMA_Init+0x1d4>)
 800104c:	4293      	cmp	r3, r2
 800104e:	d103      	bne.n	8001058 <DMA_Init+0xf4>
 8001050:	4b3a      	ldr	r3, [pc, #232]	@ (800113c <DMA_Init+0x1d8>)
 8001052:	200d      	movs	r0, #13
 8001054:	601c      	str	r4, [r3, #0]
 8001056:	e7dc      	b.n	8001012 <DMA_Init+0xae>
 8001058:	4a39      	ldr	r2, [pc, #228]	@ (8001140 <DMA_Init+0x1dc>)
 800105a:	4293      	cmp	r3, r2
 800105c:	d103      	bne.n	8001066 <DMA_Init+0x102>
 800105e:	4b39      	ldr	r3, [pc, #228]	@ (8001144 <DMA_Init+0x1e0>)
 8001060:	200e      	movs	r0, #14
 8001062:	601c      	str	r4, [r3, #0]
 8001064:	e7d5      	b.n	8001012 <DMA_Init+0xae>
 8001066:	4a38      	ldr	r2, [pc, #224]	@ (8001148 <DMA_Init+0x1e4>)
 8001068:	4293      	cmp	r3, r2
 800106a:	d103      	bne.n	8001074 <DMA_Init+0x110>
 800106c:	4b37      	ldr	r3, [pc, #220]	@ (800114c <DMA_Init+0x1e8>)
 800106e:	200f      	movs	r0, #15
 8001070:	601c      	str	r4, [r3, #0]
 8001072:	e7ce      	b.n	8001012 <DMA_Init+0xae>
 8001074:	4a36      	ldr	r2, [pc, #216]	@ (8001150 <DMA_Init+0x1ec>)
 8001076:	4293      	cmp	r3, r2
 8001078:	d103      	bne.n	8001082 <DMA_Init+0x11e>
 800107a:	4b36      	ldr	r3, [pc, #216]	@ (8001154 <DMA_Init+0x1f0>)
 800107c:	2010      	movs	r0, #16
 800107e:	601c      	str	r4, [r3, #0]
 8001080:	e7c7      	b.n	8001012 <DMA_Init+0xae>
 8001082:	4a35      	ldr	r2, [pc, #212]	@ (8001158 <DMA_Init+0x1f4>)
 8001084:	4293      	cmp	r3, r2
 8001086:	d103      	bne.n	8001090 <DMA_Init+0x12c>
 8001088:	4b34      	ldr	r3, [pc, #208]	@ (800115c <DMA_Init+0x1f8>)
 800108a:	2011      	movs	r0, #17
 800108c:	601c      	str	r4, [r3, #0]
 800108e:	e7c0      	b.n	8001012 <DMA_Init+0xae>
 8001090:	4a33      	ldr	r2, [pc, #204]	@ (8001160 <DMA_Init+0x1fc>)
 8001092:	4293      	cmp	r3, r2
 8001094:	d1bf      	bne.n	8001016 <DMA_Init+0xb2>
 8001096:	4b33      	ldr	r3, [pc, #204]	@ (8001164 <DMA_Init+0x200>)
 8001098:	202f      	movs	r0, #47	@ 0x2f
 800109a:	601c      	str	r4, [r3, #0]
 800109c:	e7b9      	b.n	8001012 <DMA_Init+0xae>
 800109e:	4932      	ldr	r1, [pc, #200]	@ (8001168 <DMA_Init+0x204>)
 80010a0:	428a      	cmp	r2, r1
 80010a2:	d1b8      	bne.n	8001016 <DMA_Init+0xb2>
 80010a4:	4a31      	ldr	r2, [pc, #196]	@ (800116c <DMA_Init+0x208>)
 80010a6:	4293      	cmp	r3, r2
 80010a8:	d103      	bne.n	80010b2 <DMA_Init+0x14e>
 80010aa:	4b31      	ldr	r3, [pc, #196]	@ (8001170 <DMA_Init+0x20c>)
 80010ac:	2038      	movs	r0, #56	@ 0x38
 80010ae:	601c      	str	r4, [r3, #0]
 80010b0:	e7af      	b.n	8001012 <DMA_Init+0xae>
 80010b2:	4a30      	ldr	r2, [pc, #192]	@ (8001174 <DMA_Init+0x210>)
 80010b4:	4293      	cmp	r3, r2
 80010b6:	d103      	bne.n	80010c0 <DMA_Init+0x15c>
 80010b8:	4b2f      	ldr	r3, [pc, #188]	@ (8001178 <DMA_Init+0x214>)
 80010ba:	2039      	movs	r0, #57	@ 0x39
 80010bc:	601c      	str	r4, [r3, #0]
 80010be:	e7a8      	b.n	8001012 <DMA_Init+0xae>
 80010c0:	4a2e      	ldr	r2, [pc, #184]	@ (800117c <DMA_Init+0x218>)
 80010c2:	4293      	cmp	r3, r2
 80010c4:	d103      	bne.n	80010ce <DMA_Init+0x16a>
 80010c6:	4b2e      	ldr	r3, [pc, #184]	@ (8001180 <DMA_Init+0x21c>)
 80010c8:	203a      	movs	r0, #58	@ 0x3a
 80010ca:	601c      	str	r4, [r3, #0]
 80010cc:	e7a1      	b.n	8001012 <DMA_Init+0xae>
 80010ce:	4a2d      	ldr	r2, [pc, #180]	@ (8001184 <DMA_Init+0x220>)
 80010d0:	4293      	cmp	r3, r2
 80010d2:	d103      	bne.n	80010dc <DMA_Init+0x178>
 80010d4:	4b2c      	ldr	r3, [pc, #176]	@ (8001188 <DMA_Init+0x224>)
 80010d6:	203b      	movs	r0, #59	@ 0x3b
 80010d8:	601c      	str	r4, [r3, #0]
 80010da:	e79a      	b.n	8001012 <DMA_Init+0xae>
 80010dc:	4a2b      	ldr	r2, [pc, #172]	@ (800118c <DMA_Init+0x228>)
 80010de:	4293      	cmp	r3, r2
 80010e0:	d103      	bne.n	80010ea <DMA_Init+0x186>
 80010e2:	4b2b      	ldr	r3, [pc, #172]	@ (8001190 <DMA_Init+0x22c>)
 80010e4:	203c      	movs	r0, #60	@ 0x3c
 80010e6:	601c      	str	r4, [r3, #0]
 80010e8:	e793      	b.n	8001012 <DMA_Init+0xae>
 80010ea:	4a2a      	ldr	r2, [pc, #168]	@ (8001194 <DMA_Init+0x230>)
 80010ec:	4293      	cmp	r3, r2
 80010ee:	d103      	bne.n	80010f8 <DMA_Init+0x194>
 80010f0:	4b29      	ldr	r3, [pc, #164]	@ (8001198 <DMA_Init+0x234>)
 80010f2:	2044      	movs	r0, #68	@ 0x44
 80010f4:	601c      	str	r4, [r3, #0]
 80010f6:	e78c      	b.n	8001012 <DMA_Init+0xae>
 80010f8:	4a28      	ldr	r2, [pc, #160]	@ (800119c <DMA_Init+0x238>)
 80010fa:	4293      	cmp	r3, r2
 80010fc:	d103      	bne.n	8001106 <DMA_Init+0x1a2>
 80010fe:	4b28      	ldr	r3, [pc, #160]	@ (80011a0 <DMA_Init+0x23c>)
 8001100:	2045      	movs	r0, #69	@ 0x45
 8001102:	601c      	str	r4, [r3, #0]
 8001104:	e785      	b.n	8001012 <DMA_Init+0xae>
 8001106:	4a27      	ldr	r2, [pc, #156]	@ (80011a4 <DMA_Init+0x240>)
 8001108:	4293      	cmp	r3, r2
 800110a:	d184      	bne.n	8001016 <DMA_Init+0xb2>
 800110c:	4b26      	ldr	r3, [pc, #152]	@ (80011a8 <DMA_Init+0x244>)
 800110e:	2046      	movs	r0, #70	@ 0x46
 8001110:	601c      	str	r4, [r3, #0]
 8001112:	e77e      	b.n	8001012 <DMA_Init+0xae>
 8001114:	b91a      	cbnz	r2, 800111e <DMA_Init+0x1ba>
 8001116:	681a      	ldr	r2, [r3, #0]
 8001118:	f422 7280 	bic.w	r2, r2, #256	@ 0x100
 800111c:	e78b      	b.n	8001036 <DMA_Init+0xd2>
 800111e:	f04f 30ff 	mov.w	r0, #4294967295
 8001122:	e78a      	b.n	800103a <DMA_Init+0xd6>
 8001124:	40026000 	.word	0x40026000
 8001128:	40026010 	.word	0x40026010
 800112c:	20000074 	.word	0x20000074
 8001130:	40026028 	.word	0x40026028
 8001134:	20000070 	.word	0x20000070
 8001138:	40026040 	.word	0x40026040
 800113c:	2000006c 	.word	0x2000006c
 8001140:	40026058 	.word	0x40026058
 8001144:	20000068 	.word	0x20000068
 8001148:	40026070 	.word	0x40026070
 800114c:	20000064 	.word	0x20000064
 8001150:	40026088 	.word	0x40026088
 8001154:	20000060 	.word	0x20000060
 8001158:	400260a0 	.word	0x400260a0
 800115c:	2000005c 	.word	0x2000005c
 8001160:	400260b8 	.word	0x400260b8
 8001164:	20000058 	.word	0x20000058
 8001168:	40026400 	.word	0x40026400
 800116c:	40026410 	.word	0x40026410
 8001170:	20000054 	.word	0x20000054
 8001174:	40026428 	.word	0x40026428
 8001178:	20000050 	.word	0x20000050
 800117c:	40026440 	.word	0x40026440
 8001180:	2000004c 	.word	0x2000004c
 8001184:	40026458 	.word	0x40026458
 8001188:	20000048 	.word	0x20000048
 800118c:	40026470 	.word	0x40026470
 8001190:	20000044 	.word	0x20000044
 8001194:	40026488 	.word	0x40026488
 8001198:	20000040 	.word	0x20000040
 800119c:	400264a0 	.word	0x400264a0
 80011a0:	2000003c 	.word	0x2000003c
 80011a4:	400264b8 	.word	0x400264b8
 80011a8:	20000038 	.word	0x20000038

080011ac <EXTI0_IRQHandler>:
 80011ac:	b508      	push	{r3, lr}
 80011ae:	4b05      	ldr	r3, [pc, #20]	@ (80011c4 <EXTI0_IRQHandler+0x18>)
 80011b0:	681b      	ldr	r3, [r3, #0]
 80011b2:	b103      	cbz	r3, 80011b6 <EXTI0_IRQHandler+0xa>
 80011b4:	4798      	blx	r3
 80011b6:	4a04      	ldr	r2, [pc, #16]	@ (80011c8 <EXTI0_IRQHandler+0x1c>)
 80011b8:	6953      	ldr	r3, [r2, #20]
 80011ba:	f043 0301 	orr.w	r3, r3, #1
 80011be:	6153      	str	r3, [r2, #20]
 80011c0:	bd08      	pop	{r3, pc}
 80011c2:	bf00      	nop
 80011c4:	20000078 	.word	0x20000078
 80011c8:	40013c00 	.word	0x40013c00

080011cc <EXTI1_IRQHandler>:
 80011cc:	b508      	push	{r3, lr}
 80011ce:	4b05      	ldr	r3, [pc, #20]	@ (80011e4 <EXTI1_IRQHandler+0x18>)
 80011d0:	685b      	ldr	r3, [r3, #4]
 80011d2:	b103      	cbz	r3, 80011d6 <EXTI1_IRQHandler+0xa>
 80011d4:	4798      	blx	r3
 80011d6:	4a04      	ldr	r2, [pc, #16]	@ (80011e8 <EXTI1_IRQHandler+0x1c>)
 80011d8:	6953      	ldr	r3, [r2, #20]
 80011da:	f043 0302 	orr.w	r3, r3, #2
 80011de:	6153      	str	r3, [r2, #20]
 80011e0:	bd08      	pop	{r3, pc}
 80011e2:	bf00      	nop
 80011e4:	20000078 	.word	0x20000078
 80011e8:	40013c00 	.word	0x40013c00

080011ec <EXTI2_IRQHandler>:
 80011ec:	b508      	push	{r3, lr}
 80011ee:	4b05      	ldr	r3, [pc, #20]	@ (8001204 <EXTI2_IRQHandler+0x18>)
 80011f0:	689b      	ldr	r3, [r3, #8]
 80011f2:	b103      	cbz	r3, 80011f6 <EXTI2_IRQHandler+0xa>
 80011f4:	4798      	blx	r3
 80011f6:	4a04      	ldr	r2, [pc, #16]	@ (8001208 <EXTI2_IRQHandler+0x1c>)
 80011f8:	6953      	ldr	r3, [r2, #20]
 80011fa:	f043 0304 	orr.w	r3, r3, #4
 80011fe:	6153      	str	r3, [r2, #20]
 8001200:	bd08      	pop	{r3, pc}
 8001202:	bf00      	nop
 8001204:	20000078 	.word	0x20000078
 8001208:	40013c00 	.word	0x40013c00

0800120c <EXTI3_IRQHandler>:
 800120c:	b508      	push	{r3, lr}
 800120e:	4b05      	ldr	r3, [pc, #20]	@ (8001224 <EXTI3_IRQHandler+0x18>)
 8001210:	68db      	ldr	r3, [r3, #12]
 8001212:	b103      	cbz	r3, 8001216 <EXTI3_IRQHandler+0xa>
 8001214:	4798      	blx	r3
 8001216:	4a04      	ldr	r2, [pc, #16]	@ (8001228 <EXTI3_IRQHandler+0x1c>)
 8001218:	6953      	ldr	r3, [r2, #20]
 800121a:	f043 0308 	orr.w	r3, r3, #8
 800121e:	6153      	str	r3, [r2, #20]
 8001220:	bd08      	pop	{r3, pc}
 8001222:	bf00      	nop
 8001224:	20000078 	.word	0x20000078
 8001228:	40013c00 	.word	0x40013c00

0800122c <EXTI4_IRQHandler>:
 800122c:	b508      	push	{r3, lr}
 800122e:	4b05      	ldr	r3, [pc, #20]	@ (8001244 <EXTI4_IRQHandler+0x18>)
 8001230:	691b      	ldr	r3, [r3, #16]
 8001232:	b103      	cbz	r3, 8001236 <EXTI4_IRQHandler+0xa>
 8001234:	4798      	blx	r3
 8001236:	4a04      	ldr	r2, [pc, #16]	@ (8001248 <EXTI4_IRQHandler+0x1c>)
 8001238:	6953      	ldr	r3, [r2, #20]
 800123a:	f043 0310 	orr.w	r3, r3, #16
 800123e:	6153      	str	r3, [r2, #20]
 8001240:	bd08      	pop	{r3, pc}
 8001242:	bf00      	nop
 8001244:	20000078 	.word	0x20000078
 8001248:	40013c00 	.word	0x40013c00

0800124c <EXTI9_5_IRQHandler>:
 800124c:	e92d 41f0 	stmdb	sp!, {r4, r5, r6, r7, r8, lr}
 8001250:	4e0a      	ldr	r6, [pc, #40]	@ (800127c <EXTI9_5_IRQHandler+0x30>)
 8001252:	f8df 802c 	ldr.w	r8, [pc, #44]	@ 8001280 <EXTI9_5_IRQHandler+0x34>
 8001256:	2405      	movs	r4, #5
 8001258:	2701      	movs	r7, #1
 800125a:	6973      	ldr	r3, [r6, #20]
 800125c:	fa07 f504 	lsl.w	r5, r7, r4
 8001260:	422b      	tst	r3, r5
 8001262:	d006      	beq.n	8001272 <EXTI9_5_IRQHandler+0x26>
 8001264:	f858 3024 	ldr.w	r3, [r8, r4, lsl #2]
 8001268:	b11b      	cbz	r3, 8001272 <EXTI9_5_IRQHandler+0x26>
 800126a:	4798      	blx	r3
 800126c:	6973      	ldr	r3, [r6, #20]
 800126e:	431d      	orrs	r5, r3
 8001270:	6175      	str	r5, [r6, #20]
 8001272:	3401      	adds	r4, #1
 8001274:	2c0a      	cmp	r4, #10
 8001276:	d1f0      	bne.n	800125a <EXTI9_5_IRQHandler+0xe>
 8001278:	e8bd 81f0 	ldmia.w	sp!, {r4, r5, r6, r7, r8, pc}
 800127c:	40013c00 	.word	0x40013c00
 8001280:	20000078 	.word	0x20000078

08001284 <EXTI15_10_IRQHandler>:
 8001284:	e92d 41f0 	stmdb	sp!, {r4, r5, r6, r7, r8, lr}
 8001288:	4e0a      	ldr	r6, [pc, #40]	@ (80012b4 <EXTI15_10_IRQHandler+0x30>)
 800128a:	f8df 802c 	ldr.w	r8, [pc, #44]	@ 80012b8 <EXTI15_10_IRQHandler+0x34>
 800128e:	240a      	movs	r4, #10
 8001290:	2701      	movs	r7, #1
 8001292:	6973      	ldr	r3, [r6, #20]
 8001294:	fa07 f504 	lsl.w	r5, r7, r4
 8001298:	422b      	tst	r3, r5
 800129a:	d006      	beq.n	80012aa <EXTI15_10_IRQHandler+0x26>
 800129c:	f858 3024 	ldr.w	r3, [r8, r4, lsl #2]
 80012a0:	b11b      	cbz	r3, 80012aa <EXTI15_10_IRQHandler+0x26>
 80012a2:	4798      	blx	r3
 80012a4:	6973      	ldr	r3, [r6, #20]
 80012a6:	431d      	orrs	r5, r3
 80012a8:	6175      	str	r5, [r6, #20]
 80012aa:	3401      	adds	r4, #1
 80012ac:	2c10      	cmp	r4, #16
 80012ae:	d1f0      	bne.n	8001292 <EXTI15_10_IRQHandler+0xe>
 80012b0:	e8bd 81f0 	ldmia.w	sp!, {r4, r5, r6, r7, r8, pc}
 80012b4:	40013c00 	.word	0x40013c00
 80012b8:	20000078 	.word	0x20000078

080012bc <GPIO_Clock_Enable>:
 80012bc:	4b21      	ldr	r3, [pc, #132]	@ (8001344 <GPIO_Clock_Enable+0x88>)
 80012be:	4298      	cmp	r0, r3
 80012c0:	d030      	beq.n	8001324 <GPIO_Clock_Enable+0x68>
 80012c2:	d80e      	bhi.n	80012e2 <GPIO_Clock_Enable+0x26>
 80012c4:	f5a3 6300 	sub.w	r3, r3, #2048	@ 0x800
 80012c8:	4298      	cmp	r0, r3
 80012ca:	d021      	beq.n	8001310 <GPIO_Clock_Enable+0x54>
 80012cc:	f503 6380 	add.w	r3, r3, #1024	@ 0x400
 80012d0:	4298      	cmp	r0, r3
 80012d2:	d022      	beq.n	800131a <GPIO_Clock_Enable+0x5e>
 80012d4:	f5a3 6300 	sub.w	r3, r3, #2048	@ 0x800
 80012d8:	4298      	cmp	r0, r3
 80012da:	d012      	beq.n	8001302 <GPIO_Clock_Enable+0x46>
 80012dc:	f04f 30ff 	mov.w	r0, #4294967295
 80012e0:	4770      	bx	lr
 80012e2:	4b19      	ldr	r3, [pc, #100]	@ (8001348 <GPIO_Clock_Enable+0x8c>)
 80012e4:	4298      	cmp	r0, r3
 80012e6:	d022      	beq.n	800132e <GPIO_Clock_Enable+0x72>
 80012e8:	f503 6300 	add.w	r3, r3, #2048	@ 0x800
 80012ec:	4298      	cmp	r0, r3
 80012ee:	d023      	beq.n	8001338 <GPIO_Clock_Enable+0x7c>
 80012f0:	f5a3 6340 	sub.w	r3, r3, #3072	@ 0xc00
 80012f4:	4298      	cmp	r0, r3
 80012f6:	d1f1      	bne.n	80012dc <GPIO_Clock_Enable+0x20>
 80012f8:	4a14      	ldr	r2, [pc, #80]	@ (800134c <GPIO_Clock_Enable+0x90>)
 80012fa:	6b13      	ldr	r3, [r2, #48]	@ 0x30
 80012fc:	f043 0310 	orr.w	r3, r3, #16
 8001300:	e003      	b.n	800130a <GPIO_Clock_Enable+0x4e>
 8001302:	4a12      	ldr	r2, [pc, #72]	@ (800134c <GPIO_Clock_Enable+0x90>)
 8001304:	6b13      	ldr	r3, [r2, #48]	@ 0x30
 8001306:	f043 0301 	orr.w	r3, r3, #1
 800130a:	6313      	str	r3, [r2, #48]	@ 0x30
 800130c:	2000      	movs	r0, #0
 800130e:	4770      	bx	lr
 8001310:	4a0e      	ldr	r2, [pc, #56]	@ (800134c <GPIO_Clock_Enable+0x90>)
 8001312:	6b13      	ldr	r3, [r2, #48]	@ 0x30
 8001314:	f043 0302 	orr.w	r3, r3, #2
 8001318:	e7f7      	b.n	800130a <GPIO_Clock_Enable+0x4e>
 800131a:	4a0c      	ldr	r2, [pc, #48]	@ (800134c <GPIO_Clock_Enable+0x90>)
 800131c:	6b13      	ldr	r3, [r2, #48]	@ 0x30
 800131e:	f043 0304 	orr.w	r3, r3, #4
 8001322:	e7f2      	b.n	800130a <GPIO_Clock_Enable+0x4e>
 8001324:	4a09      	ldr	r2, [pc, #36]	@ (800134c <GPIO_Clock_Enable+0x90>)
 8001326:	6b13      	ldr	r3, [r2, #48]	@ 0x30
 8001328:	f043 0308 	orr.w	r3, r3, #8
 800132c:	e7ed      	b.n	800130a <GPIO_Clock_Enable+0x4e>
 800132e:	4a07      	ldr	r2, [pc, #28]	@ (800134c <GPIO_Clock_Enable+0x90>)
 8001330:	6b13      	ldr	r3, [r2, #48]	@ 0x30
 8001332:	f043 0320 	orr.w	r3, r3, #32
 8001336:	e7e8      	b.n	800130a <GPIO_Clock_Enable+0x4e>
 8001338:	4a04      	ldr	r2, [pc, #16]	@ (800134c <GPIO_Clock_Enable+0x90>)
 800133a:	6b13      	ldr	r3, [r2, #48]	@ 0x30
 800133c:	f043 0380 	orr.w	r3, r3, #128	@ 0x80
 8001340:	e7e3      	b.n	800130a <GPIO_Clock_Enable+0x4e>
 8001342:	bf00      	nop
 8001344:	40020c00 	.word	0x40020c00
 8001348:	40021400 	.word	0x40021400
 800134c:	40023800 	.word	0x40023800

08001350 <GPIO_Pin_Init>:
 8001350:	e92d 43f8 	stmdb	sp!, {r3, r4, r5, r6, r7, r8, r9, lr}
 8001354:	4604      	mov	r4, r0
 8001356:	461d      	mov	r5, r3
 8001358:	4617      	mov	r7, r2
 800135a:	f89d 9020 	ldrb.w	r9, [sp, #32]
 800135e:	f89d 8024 	ldrb.w	r8, [sp, #36]	@ 0x24
 8001362:	f89d 6028 	ldrb.w	r6, [sp, #40]	@ 0x28
 8001366:	f7ff ffa9 	bl	80012bc <GPIO_Clock_Enable>
 800136a:	f8d4 e000 	ldr.w	lr, [r4]
 800136e:	004b      	lsls	r3, r1, #1
 8001370:	2203      	movs	r2, #3
 8001372:	409a      	lsls	r2, r3
 8001374:	ea6f 0c02 	mvn.w	ip, r2
 8001378:	ea2e 0202 	bic.w	r2, lr, r2
 800137c:	6022      	str	r2, [r4, #0]
 800137e:	f8d4 e000 	ldr.w	lr, [r4]
 8001382:	fa07 f203 	lsl.w	r2, r7, r3
 8001386:	ea42 020e 	orr.w	r2, r2, lr
 800138a:	6022      	str	r2, [r4, #0]
 800138c:	6862      	ldr	r2, [r4, #4]
 800138e:	f04f 0e01 	mov.w	lr, #1
 8001392:	fa0e fe01 	lsl.w	lr, lr, r1
 8001396:	ea22 020e 	bic.w	r2, r2, lr
 800139a:	6062      	str	r2, [r4, #4]
 800139c:	2d02      	cmp	r5, #2
 800139e:	bf1f      	itttt	ne
 80013a0:	f8d4 e004 	ldrne.w	lr, [r4, #4]
 80013a4:	fa05 f201 	lslne.w	r2, r5, r1
 80013a8:	ea42 020e 	orrne.w	r2, r2, lr
 80013ac:	6062      	strne	r2, [r4, #4]
 80013ae:	68a2      	ldr	r2, [r4, #8]
 80013b0:	ea0c 0202 	and.w	r2, ip, r2
 80013b4:	60a2      	str	r2, [r4, #8]
 80013b6:	f1b9 0f04 	cmp.w	r9, #4
 80013ba:	bf1f      	itttt	ne
 80013bc:	68a2      	ldrne	r2, [r4, #8]
 80013be:	fa09 f503 	lslne.w	r5, r9, r3
 80013c2:	4315      	orrne	r5, r2
 80013c4:	60a5      	strne	r5, [r4, #8]
 80013c6:	68e2      	ldr	r2, [r4, #12]
 80013c8:	ea0c 0202 	and.w	r2, ip, r2
 80013cc:	f1b8 0f04 	cmp.w	r8, #4
 80013d0:	60e2      	str	r2, [r4, #12]
 80013d2:	bf1f      	itttt	ne
 80013d4:	68e2      	ldrne	r2, [r4, #12]
 80013d6:	fa08 f303 	lslne.w	r3, r8, r3
 80013da:	4313      	orrne	r3, r2
 80013dc:	60e3      	strne	r3, [r4, #12]
 80013de:	2f02      	cmp	r7, #2
 80013e0:	b208      	sxth	r0, r1
 80013e2:	d10e      	bne.n	8001402 <GPIO_Pin_Init+0xb2>
 80013e4:	2907      	cmp	r1, #7
 80013e6:	f04f 020f 	mov.w	r2, #15
 80013ea:	d80d      	bhi.n	8001408 <GPIO_Pin_Init+0xb8>
 80013ec:	6a21      	ldr	r1, [r4, #32]
 80013ee:	0083      	lsls	r3, r0, #2
 80013f0:	409a      	lsls	r2, r3
 80013f2:	ea21 0202 	bic.w	r2, r1, r2
 80013f6:	6222      	str	r2, [r4, #32]
 80013f8:	6a22      	ldr	r2, [r4, #32]
 80013fa:	fa06 f303 	lsl.w	r3, r6, r3
 80013fe:	4313      	orrs	r3, r2
 8001400:	6223      	str	r3, [r4, #32]
 8001402:	2000      	movs	r0, #0
 8001404:	e8bd 83f8 	ldmia.w	sp!, {r3, r4, r5, r6, r7, r8, r9, pc}
 8001408:	3908      	subs	r1, #8
 800140a:	6a63      	ldr	r3, [r4, #36]	@ 0x24
 800140c:	0089      	lsls	r1, r1, #2
 800140e:	408a      	lsls	r2, r1
 8001410:	ea23 0302 	bic.w	r3, r3, r2
 8001414:	6263      	str	r3, [r4, #36]	@ 0x24
 8001416:	6a63      	ldr	r3, [r4, #36]	@ 0x24
 8001418:	408e      	lsls	r6, r1
 800141a:	431e      	orrs	r6, r3
 800141c:	6266      	str	r6, [r4, #36]	@ 0x24
 800141e:	e7f0      	b.n	8001402 <GPIO_Pin_Init+0xb2>

08001420 <__NVIC_EnableIRQ.part.0>:
 8001420:	4a04      	ldr	r2, [pc, #16]	@ (8001434 <__NVIC_EnableIRQ.part.0+0x14>)
 8001422:	0941      	lsrs	r1, r0, #5
 8001424:	2301      	movs	r3, #1
 8001426:	f000 001f 	and.w	r0, r0, #31
 800142a:	4083      	lsls	r3, r0
 800142c:	f842 3021 	str.w	r3, [r2, r1, lsl #2]
 8001430:	4770      	bx	lr
 8001432:	bf00      	nop
 8001434:	e000e100 	.word	0xe000e100

08001438 <TIM1_BRK_TIM9_IRQHandler>:
 8001438:	4b1a      	ldr	r3, [pc, #104]	@ (80014a4 <TIM1_BRK_TIM9_IRQHandler+0x6c>)
 800143a:	681b      	ldr	r3, [r3, #0]
 800143c:	f8d3 30a8 	ldr.w	r3, [r3, #168]	@ 0xa8
 8001440:	b510      	push	{r4, lr}
 8001442:	b12b      	cbz	r3, 8001450 <TIM1_BRK_TIM9_IRQHandler+0x18>
 8001444:	4798      	blx	r3
 8001446:	4a18      	ldr	r2, [pc, #96]	@ (80014a8 <TIM1_BRK_TIM9_IRQHandler+0x70>)
 8001448:	6913      	ldr	r3, [r2, #16]
 800144a:	f023 0380 	bic.w	r3, r3, #128	@ 0x80
 800144e:	6113      	str	r3, [r2, #16]
 8001450:	4c16      	ldr	r4, [pc, #88]	@ (80014ac <TIM1_BRK_TIM9_IRQHandler+0x74>)
 8001452:	6823      	ldr	r3, [r4, #0]
 8001454:	f8d3 3090 	ldr.w	r3, [r3, #144]	@ 0x90
 8001458:	b12b      	cbz	r3, 8001466 <TIM1_BRK_TIM9_IRQHandler+0x2e>
 800145a:	4798      	blx	r3
 800145c:	4a14      	ldr	r2, [pc, #80]	@ (80014b0 <TIM1_BRK_TIM9_IRQHandler+0x78>)
 800145e:	6913      	ldr	r3, [r2, #16]
 8001460:	f023 0302 	bic.w	r3, r3, #2
 8001464:	6113      	str	r3, [r2, #16]
 8001466:	6823      	ldr	r3, [r4, #0]
 8001468:	f8d3 3094 	ldr.w	r3, [r3, #148]	@ 0x94
 800146c:	b12b      	cbz	r3, 800147a <TIM1_BRK_TIM9_IRQHandler+0x42>
 800146e:	4798      	blx	r3
 8001470:	4a0f      	ldr	r2, [pc, #60]	@ (80014b0 <TIM1_BRK_TIM9_IRQHandler+0x78>)
 8001472:	6913      	ldr	r3, [r2, #16]
 8001474:	f023 0304 	bic.w	r3, r3, #4
 8001478:	6113      	str	r3, [r2, #16]
 800147a:	6823      	ldr	r3, [r4, #0]
 800147c:	f8d3 308c 	ldr.w	r3, [r3, #140]	@ 0x8c
 8001480:	b12b      	cbz	r3, 800148e <TIM1_BRK_TIM9_IRQHandler+0x56>
 8001482:	4798      	blx	r3
 8001484:	4a0a      	ldr	r2, [pc, #40]	@ (80014b0 <TIM1_BRK_TIM9_IRQHandler+0x78>)
 8001486:	6913      	ldr	r3, [r2, #16]
 8001488:	f023 0301 	bic.w	r3, r3, #1
 800148c:	6113      	str	r3, [r2, #16]
 800148e:	6823      	ldr	r3, [r4, #0]
 8001490:	f8d3 30a4 	ldr.w	r3, [r3, #164]	@ 0xa4
 8001494:	b12b      	cbz	r3, 80014a2 <TIM1_BRK_TIM9_IRQHandler+0x6a>
 8001496:	4798      	blx	r3
 8001498:	4a05      	ldr	r2, [pc, #20]	@ (80014b0 <TIM1_BRK_TIM9_IRQHandler+0x78>)
 800149a:	6913      	ldr	r3, [r2, #16]
 800149c:	f023 0340 	bic.w	r3, r3, #64	@ 0x40
 80014a0:	6113      	str	r3, [r2, #16]
 80014a2:	bd10      	pop	{r4, pc}
 80014a4:	200000ec 	.word	0x200000ec
 80014a8:	40010000 	.word	0x40010000
 80014ac:	200000cc 	.word	0x200000cc
 80014b0:	40014000 	.word	0x40014000

080014b4 <TIM1_UP_TIM10_IRQHandler>:
 80014b4:	4b10      	ldr	r3, [pc, #64]	@ (80014f8 <TIM1_UP_TIM10_IRQHandler+0x44>)
 80014b6:	681b      	ldr	r3, [r3, #0]
 80014b8:	f8d3 308c 	ldr.w	r3, [r3, #140]	@ 0x8c
 80014bc:	b510      	push	{r4, lr}
 80014be:	b12b      	cbz	r3, 80014cc <TIM1_UP_TIM10_IRQHandler+0x18>
 80014c0:	4798      	blx	r3
 80014c2:	4a0e      	ldr	r2, [pc, #56]	@ (80014fc <TIM1_UP_TIM10_IRQHandler+0x48>)
 80014c4:	6913      	ldr	r3, [r2, #16]
 80014c6:	f023 0301 	bic.w	r3, r3, #1
 80014ca:	6113      	str	r3, [r2, #16]
 80014cc:	4c0c      	ldr	r4, [pc, #48]	@ (8001500 <TIM1_UP_TIM10_IRQHandler+0x4c>)
 80014ce:	6823      	ldr	r3, [r4, #0]
 80014d0:	f8d3 308c 	ldr.w	r3, [r3, #140]	@ 0x8c
 80014d4:	b12b      	cbz	r3, 80014e2 <TIM1_UP_TIM10_IRQHandler+0x2e>
 80014d6:	4798      	blx	r3
 80014d8:	4a0a      	ldr	r2, [pc, #40]	@ (8001504 <TIM1_UP_TIM10_IRQHandler+0x50>)
 80014da:	6913      	ldr	r3, [r2, #16]
 80014dc:	f023 0301 	bic.w	r3, r3, #1
 80014e0:	6113      	str	r3, [r2, #16]
 80014e2:	6823      	ldr	r3, [r4, #0]
 80014e4:	f8d3 3090 	ldr.w	r3, [r3, #144]	@ 0x90
 80014e8:	b12b      	cbz	r3, 80014f6 <TIM1_UP_TIM10_IRQHandler+0x42>
 80014ea:	4798      	blx	r3
 80014ec:	4a05      	ldr	r2, [pc, #20]	@ (8001504 <TIM1_UP_TIM10_IRQHandler+0x50>)
 80014ee:	6913      	ldr	r3, [r2, #16]
 80014f0:	f023 0302 	bic.w	r3, r3, #2
 80014f4:	6113      	str	r3, [r2, #16]
 80014f6:	bd10      	pop	{r4, pc}
 80014f8:	200000ec 	.word	0x200000ec
 80014fc:	40010000 	.word	0x40010000
 8001500:	200000c8 	.word	0x200000c8
 8001504:	40014400 	.word	0x40014400

08001508 <TIM1_TRG_COM_TIM11_IRQHandler>:
 8001508:	b510      	push	{r4, lr}
 800150a:	4c15      	ldr	r4, [pc, #84]	@ (8001560 <TIM1_TRG_COM_TIM11_IRQHandler+0x58>)
 800150c:	6823      	ldr	r3, [r4, #0]
 800150e:	f8d3 30a4 	ldr.w	r3, [r3, #164]	@ 0xa4
 8001512:	b12b      	cbz	r3, 8001520 <TIM1_TRG_COM_TIM11_IRQHandler+0x18>
 8001514:	4798      	blx	r3
 8001516:	4a13      	ldr	r2, [pc, #76]	@ (8001564 <TIM1_TRG_COM_TIM11_IRQHandler+0x5c>)
 8001518:	6913      	ldr	r3, [r2, #16]
 800151a:	f023 0340 	bic.w	r3, r3, #64	@ 0x40
 800151e:	6113      	str	r3, [r2, #16]
 8001520:	6823      	ldr	r3, [r4, #0]
 8001522:	f8d3 30a0 	ldr.w	r3, [r3, #160]	@ 0xa0
 8001526:	b12b      	cbz	r3, 8001534 <TIM1_TRG_COM_TIM11_IRQHandler+0x2c>
 8001528:	4798      	blx	r3
 800152a:	4a0e      	ldr	r2, [pc, #56]	@ (8001564 <TIM1_TRG_COM_TIM11_IRQHandler+0x5c>)
 800152c:	6913      	ldr	r3, [r2, #16]
 800152e:	f023 0320 	bic.w	r3, r3, #32
 8001532:	6113      	str	r3, [r2, #16]
 8001534:	4c0c      	ldr	r4, [pc, #48]	@ (8001568 <TIM1_TRG_COM_TIM11_IRQHandler+0x60>)
 8001536:	6823      	ldr	r3, [r4, #0]
 8001538:	f8d3 308c 	ldr.w	r3, [r3, #140]	@ 0x8c
 800153c:	b12b      	cbz	r3, 800154a <TIM1_TRG_COM_TIM11_IRQHandler+0x42>
 800153e:	4798      	blx	r3
 8001540:	4a0a      	ldr	r2, [pc, #40]	@ (800156c <TIM1_TRG_COM_TIM11_IRQHandler+0x64>)
 8001542:	6913      	ldr	r3, [r2, #16]
 8001544:	f023 0301 	bic.w	r3, r3, #1
 8001548:	6113      	str	r3, [r2, #16]
 800154a:	6823      	ldr	r3, [r4, #0]
 800154c:	f8d3 3090 	ldr.w	r3, [r3, #144]	@ 0x90
 8001550:	b12b      	cbz	r3, 800155e <TIM1_TRG_COM_TIM11_IRQHandler+0x56>
 8001552:	4798      	blx	r3
 8001554:	4a05      	ldr	r2, [pc, #20]	@ (800156c <TIM1_TRG_COM_TIM11_IRQHandler+0x64>)
 8001556:	6913      	ldr	r3, [r2, #16]
 8001558:	f023 0302 	bic.w	r3, r3, #2
 800155c:	6113      	str	r3, [r2, #16]
 800155e:	bd10      	pop	{r4, pc}
 8001560:	200000ec 	.word	0x200000ec
 8001564:	40010000 	.word	0x40010000
 8001568:	200000c4 	.word	0x200000c4
 800156c:	40014800 	.word	0x40014800

08001570 <TIM1_CC_IRQHandler>:
 8001570:	b510      	push	{r4, lr}
 8001572:	4c15      	ldr	r4, [pc, #84]	@ (80015c8 <TIM1_CC_IRQHandler+0x58>)
 8001574:	6823      	ldr	r3, [r4, #0]
 8001576:	f8d3 3090 	ldr.w	r3, [r3, #144]	@ 0x90
 800157a:	b12b      	cbz	r3, 8001588 <TIM1_CC_IRQHandler+0x18>
 800157c:	4798      	blx	r3
 800157e:	4a13      	ldr	r2, [pc, #76]	@ (80015cc <TIM1_CC_IRQHandler+0x5c>)
 8001580:	6913      	ldr	r3, [r2, #16]
 8001582:	f023 0302 	bic.w	r3, r3, #2
 8001586:	6113      	str	r3, [r2, #16]
 8001588:	6823      	ldr	r3, [r4, #0]
 800158a:	f8d3 3094 	ldr.w	r3, [r3, #148]	@ 0x94
 800158e:	b12b      	cbz	r3, 800159c <TIM1_CC_IRQHandler+0x2c>
 8001590:	4798      	blx	r3
 8001592:	4a0e      	ldr	r2, [pc, #56]	@ (80015cc <TIM1_CC_IRQHandler+0x5c>)
 8001594:	6913      	ldr	r3, [r2, #16]
 8001596:	f023 0304 	bic.w	r3, r3, #4
 800159a:	6113      	str	r3, [r2, #16]
 800159c:	6823      	ldr	r3, [r4, #0]
 800159e:	f8d3 3098 	ldr.w	r3, [r3, #152]	@ 0x98
 80015a2:	b12b      	cbz	r3, 80015b0 <TIM1_CC_IRQHandler+0x40>
 80015a4:	4798      	blx	r3
 80015a6:	4a09      	ldr	r2, [pc, #36]	@ (80015cc <TIM1_CC_IRQHandler+0x5c>)
 80015a8:	6913      	ldr	r3, [r2, #16]
 80015aa:	f023 0308 	bic.w	r3, r3, #8
 80015ae:	6113      	str	r3, [r2, #16]
 80015b0:	6823      	ldr	r3, [r4, #0]
 80015b2:	f8d3 309c 	ldr.w	r3, [r3, #156]	@ 0x9c
 80015b6:	b12b      	cbz	r3, 80015c4 <TIM1_CC_IRQHandler+0x54>
 80015b8:	4798      	blx	r3
 80015ba:	4a04      	ldr	r2, [pc, #16]	@ (80015cc <TIM1_CC_IRQHandler+0x5c>)
 80015bc:	6913      	ldr	r3, [r2, #16]
 80015be:	f023 0310 	bic.w	r3, r3, #16
 80015c2:	6113      	str	r3, [r2, #16]
 80015c4:	bd10      	pop	{r4, pc}
 80015c6:	bf00      	nop
 80015c8:	200000ec 	.word	0x200000ec
 80015cc:	40010000 	.word	0x40010000

080015d0 <TIM2_IRQHandler>:
 80015d0:	b510      	push	{r4, lr}
 80015d2:	4c22      	ldr	r4, [pc, #136]	@ (800165c <TIM2_IRQHandler+0x8c>)
 80015d4:	6823      	ldr	r3, [r4, #0]
 80015d6:	f8d3 3090 	ldr.w	r3, [r3, #144]	@ 0x90
 80015da:	b133      	cbz	r3, 80015ea <TIM2_IRQHandler+0x1a>
 80015dc:	4798      	blx	r3
 80015de:	f04f 4280 	mov.w	r2, #1073741824	@ 0x40000000
 80015e2:	6913      	ldr	r3, [r2, #16]
 80015e4:	f023 0302 	bic.w	r3, r3, #2
 80015e8:	6113      	str	r3, [r2, #16]
 80015ea:	6823      	ldr	r3, [r4, #0]
 80015ec:	f8d3 3094 	ldr.w	r3, [r3, #148]	@ 0x94
 80015f0:	b133      	cbz	r3, 8001600 <TIM2_IRQHandler+0x30>
 80015f2:	4798      	blx	r3
 80015f4:	f04f 4280 	mov.w	r2, #1073741824	@ 0x40000000
 80015f8:	6913      	ldr	r3, [r2, #16]
 80015fa:	f023 0304 	bic.w	r3, r3, #4
 80015fe:	6113      	str	r3, [r2, #16]
 8001600:	6823      	ldr	r3, [r4, #0]
 8001602:	f8d3 3098 	ldr.w	r3, [r3, #152]	@ 0x98
 8001606:	b133      	cbz	r3, 8001616 <TIM2_IRQHandler+0x46>
 8001608:	4798      	blx	r3
 800160a:	f04f 4280 	mov.w	r2, #1073741824	@ 0x40000000
 800160e:	6913      	ldr	r3, [r2, #16]
 8001610:	f023 0308 	bic.w	r3, r3, #8
 8001614:	6113      	str	r3, [r2, #16]
 8001616:	6823      	ldr	r3, [r4, #0]
 8001618:	f8d3 309c 	ldr.w	r3, [r3, #156]	@ 0x9c
 800161c:	b133      	cbz	r3, 800162c <TIM2_IRQHandler+0x5c>
 800161e:	4798      	blx	r3
 8001620:	f04f 4280 	mov.w	r2, #1073741824	@ 0x40000000
 8001624:	6913      	ldr	r3, [r2, #16]
 8001626:	f023 0310 	bic.w	r3, r3, #16
 800162a:	6113      	str	r3, [r2, #16]
 800162c:	6823      	ldr	r3, [r4, #0]
 800162e:	f8d3 308c 	ldr.w	r3, [r3, #140]	@ 0x8c
 8001632:	b133      	cbz	r3, 8001642 <TIM2_IRQHandler+0x72>
 8001634:	4798      	blx	r3
 8001636:	f04f 4280 	mov.w	r2, #1073741824	@ 0x40000000
 800163a:	6913      	ldr	r3, [r2, #16]
 800163c:	f023 0301 	bic.w	r3, r3, #1
 8001640:	6113      	str	r3, [r2, #16]
 8001642:	6823      	ldr	r3, [r4, #0]
 8001644:	f8d3 30a4 	ldr.w	r3, [r3, #164]	@ 0xa4
 8001648:	b133      	cbz	r3, 8001658 <TIM2_IRQHandler+0x88>
 800164a:	4798      	blx	r3
 800164c:	f04f 4280 	mov.w	r2, #1073741824	@ 0x40000000
 8001650:	6913      	ldr	r3, [r2, #16]
 8001652:	f023 0340 	bic.w	r3, r3, #64	@ 0x40
 8001656:	6113      	str	r3, [r2, #16]
 8001658:	bd10      	pop	{r4, pc}
 800165a:	bf00      	nop
 800165c:	200000e8 	.word	0x200000e8

08001660 <TIM3_IRQHandler>:
 8001660:	b510      	push	{r4, lr}
 8001662:	4c1f      	ldr	r4, [pc, #124]	@ (80016e0 <TIM3_IRQHandler+0x80>)
 8001664:	6823      	ldr	r3, [r4, #0]
 8001666:	f8d3 3090 	ldr.w	r3, [r3, #144]	@ 0x90
 800166a:	b12b      	cbz	r3, 8001678 <TIM3_IRQHandler+0x18>
 800166c:	4798      	blx	r3
 800166e:	4a1d      	ldr	r2, [pc, #116]	@ (80016e4 <TIM3_IRQHandler+0x84>)
 8001670:	6913      	ldr	r3, [r2, #16]
 8001672:	f023 0302 	bic.w	r3, r3, #2
 8001676:	6113      	str	r3, [r2, #16]
 8001678:	6823      	ldr	r3, [r4, #0]
 800167a:	f8d3 3094 	ldr.w	r3, [r3, #148]	@ 0x94
 800167e:	b12b      	cbz	r3, 800168c <TIM3_IRQHandler+0x2c>
 8001680:	4798      	blx	r3
 8001682:	4a18      	ldr	r2, [pc, #96]	@ (80016e4 <TIM3_IRQHandler+0x84>)
 8001684:	6913      	ldr	r3, [r2, #16]
 8001686:	f023 0304 	bic.w	r3, r3, #4
 800168a:	6113      	str	r3, [r2, #16]
 800168c:	6823      	ldr	r3, [r4, #0]
 800168e:	f8d3 3098 	ldr.w	r3, [r3, #152]	@ 0x98
 8001692:	b12b      	cbz	r3, 80016a0 <TIM3_IRQHandler+0x40>
 8001694:	4798      	blx	r3
 8001696:	4a13      	ldr	r2, [pc, #76]	@ (80016e4 <TIM3_IRQHandler+0x84>)
 8001698:	6913      	ldr	r3, [r2, #16]
 800169a:	f023 0308 	bic.w	r3, r3, #8
 800169e:	6113      	str	r3, [r2, #16]
 80016a0:	6823      	ldr	r3, [r4, #0]
 80016a2:	f8d3 309c 	ldr.w	r3, [r3, #156]	@ 0x9c
 80016a6:	b12b      	cbz	r3, 80016b4 <TIM3_IRQHandler+0x54>
 80016a8:	4798      	blx	r3
 80016aa:	4a0e      	ldr	r2, [pc, #56]	@ (80016e4 <TIM3_IRQHandler+0x84>)
 80016ac:	6913      	ldr	r3, [r2, #16]
 80016ae:	f023 0310 	bic.w	r3, r3, #16
 80016b2:	6113      	str	r3, [r2, #16]
 80016b4:	6823      	ldr	r3, [r4, #0]
 80016b6:	f8d3 308c 	ldr.w	r3, [r3, #140]	@ 0x8c
 80016ba:	b12b      	cbz	r3, 80016c8 <TIM3_IRQHandler+0x68>
 80016bc:	4798      	blx	r3
 80016be:	4a09      	ldr	r2, [pc, #36]	@ (80016e4 <TIM3_IRQHandler+0x84>)
 80016c0:	6913      	ldr	r3, [r2, #16]
 80016c2:	f023 0301 	bic.w	r3, r3, #1
 80016c6:	6113      	str	r3, [r2, #16]
 80016c8:	6823      	ldr	r3, [r4, #0]
 80016ca:	f8d3 30a4 	ldr.w	r3, [r3, #164]	@ 0xa4
 80016ce:	b12b      	cbz	r3, 80016dc <TIM3_IRQHandler+0x7c>
 80016d0:	4798      	blx	r3
 80016d2:	4a04      	ldr	r2, [pc, #16]	@ (80016e4 <TIM3_IRQHandler+0x84>)
 80016d4:	6913      	ldr	r3, [r2, #16]
 80016d6:	f023 0340 	bic.w	r3, r3, #64	@ 0x40
 80016da:	6113      	str	r3, [r2, #16]
 80016dc:	bd10      	pop	{r4, pc}
 80016de:	bf00      	nop
 80016e0:	200000e4 	.word	0x200000e4
 80016e4:	40000400 	.word	0x40000400

080016e8 <TIM4_IRQHandler>:
 80016e8:	b510      	push	{r4, lr}
 80016ea:	4c1f      	ldr	r4, [pc, #124]	@ (8001768 <TIM4_IRQHandler+0x80>)
 80016ec:	6823      	ldr	r3, [r4, #0]
 80016ee:	f8d3 3090 	ldr.w	r3, [r3, #144]	@ 0x90
 80016f2:	b12b      	cbz	r3, 8001700 <TIM4_IRQHandler+0x18>
 80016f4:	4798      	blx	r3
 80016f6:	4a1d      	ldr	r2, [pc, #116]	@ (800176c <TIM4_IRQHandler+0x84>)
 80016f8:	6913      	ldr	r3, [r2, #16]
 80016fa:	f023 0302 	bic.w	r3, r3, #2
 80016fe:	6113      	str	r3, [r2, #16]
 8001700:	6823      	ldr	r3, [r4, #0]
 8001702:	f8d3 3094 	ldr.w	r3, [r3, #148]	@ 0x94
 8001706:	b12b      	cbz	r3, 8001714 <TIM4_IRQHandler+0x2c>
 8001708:	4798      	blx	r3
 800170a:	4a18      	ldr	r2, [pc, #96]	@ (800176c <TIM4_IRQHandler+0x84>)
 800170c:	6913      	ldr	r3, [r2, #16]
 800170e:	f023 0304 	bic.w	r3, r3, #4
 8001712:	6113      	str	r3, [r2, #16]
 8001714:	6823      	ldr	r3, [r4, #0]
 8001716:	f8d3 3098 	ldr.w	r3, [r3, #152]	@ 0x98
 800171a:	b12b      	cbz	r3, 8001728 <TIM4_IRQHandler+0x40>
 800171c:	4798      	blx	r3
 800171e:	4a13      	ldr	r2, [pc, #76]	@ (800176c <TIM4_IRQHandler+0x84>)
 8001720:	6913      	ldr	r3, [r2, #16]
 8001722:	f023 0308 	bic.w	r3, r3, #8
 8001726:	6113      	str	r3, [r2, #16]
 8001728:	6823      	ldr	r3, [r4, #0]
 800172a:	f8d3 309c 	ldr.w	r3, [r3, #156]	@ 0x9c
 800172e:	b12b      	cbz	r3, 800173c <TIM4_IRQHandler+0x54>
 8001730:	4798      	blx	r3
 8001732:	4a0e      	ldr	r2, [pc, #56]	@ (800176c <TIM4_IRQHandler+0x84>)
 8001734:	6913      	ldr	r3, [r2, #16]
 8001736:	f023 0310 	bic.w	r3, r3, #16
 800173a:	6113      	str	r3, [r2, #16]
 800173c:	6823      	ldr	r3, [r4, #0]
 800173e:	f8d3 308c 	ldr.w	r3, [r3, #140]	@ 0x8c
 8001742:	b12b      	cbz	r3, 8001750 <TIM4_IRQHandler+0x68>
 8001744:	4798      	blx	r3
 8001746:	4a09      	ldr	r2, [pc, #36]	@ (800176c <TIM4_IRQHandler+0x84>)
 8001748:	6913      	ldr	r3, [r2, #16]
 800174a:	f023 0301 	bic.w	r3, r3, #1
 800174e:	6113      	str	r3, [r2, #16]
 8001750:	6823      	ldr	r3, [r4, #0]
 8001752:	f8d3 30a4 	ldr.w	r3, [r3, #164]	@ 0xa4
 8001756:	b12b      	cbz	r3, 8001764 <TIM4_IRQHandler+0x7c>
 8001758:	4798      	blx	r3
 800175a:	4a04      	ldr	r2, [pc, #16]	@ (800176c <TIM4_IRQHandler+0x84>)
 800175c:	6913      	ldr	r3, [r2, #16]
 800175e:	f023 0340 	bic.w	r3, r3, #64	@ 0x40
 8001762:	6113      	str	r3, [r2, #16]
 8001764:	bd10      	pop	{r4, pc}
 8001766:	bf00      	nop
 8001768:	200000e0 	.word	0x200000e0
 800176c:	40000800 	.word	0x40000800

08001770 <TIM5_IRQHandler>:
 8001770:	b510      	push	{r4, lr}
 8001772:	4c1f      	ldr	r4, [pc, #124]	@ (80017f0 <TIM5_IRQHandler+0x80>)
 8001774:	6823      	ldr	r3, [r4, #0]
 8001776:	f8d3 3090 	ldr.w	r3, [r3, #144]	@ 0x90
 800177a:	b12b      	cbz	r3, 8001788 <TIM5_IRQHandler+0x18>
 800177c:	4798      	blx	r3
 800177e:	4a1d      	ldr	r2, [pc, #116]	@ (80017f4 <TIM5_IRQHandler+0x84>)
 8001780:	6913      	ldr	r3, [r2, #16]
 8001782:	f023 0302 	bic.w	r3, r3, #2
 8001786:	6113      	str	r3, [r2, #16]
 8001788:	6823      	ldr	r3, [r4, #0]
 800178a:	f8d3 3094 	ldr.w	r3, [r3, #148]	@ 0x94
 800178e:	b12b      	cbz	r3, 800179c <TIM5_IRQHandler+0x2c>
 8001790:	4798      	blx	r3
 8001792:	4a18      	ldr	r2, [pc, #96]	@ (80017f4 <TIM5_IRQHandler+0x84>)
 8001794:	6913      	ldr	r3, [r2, #16]
 8001796:	f023 0304 	bic.w	r3, r3, #4
 800179a:	6113      	str	r3, [r2, #16]
 800179c:	6823      	ldr	r3, [r4, #0]
 800179e:	f8d3 3098 	ldr.w	r3, [r3, #152]	@ 0x98
 80017a2:	b12b      	cbz	r3, 80017b0 <TIM5_IRQHandler+0x40>
 80017a4:	4798      	blx	r3
 80017a6:	4a13      	ldr	r2, [pc, #76]	@ (80017f4 <TIM5_IRQHandler+0x84>)
 80017a8:	6913      	ldr	r3, [r2, #16]
 80017aa:	f023 0308 	bic.w	r3, r3, #8
 80017ae:	6113      	str	r3, [r2, #16]
 80017b0:	6823      	ldr	r3, [r4, #0]
 80017b2:	f8d3 309c 	ldr.w	r3, [r3, #156]	@ 0x9c
 80017b6:	b12b      	cbz	r3, 80017c4 <TIM5_IRQHandler+0x54>
 80017b8:	4798      	blx	r3
 80017ba:	4a0e      	ldr	r2, [pc, #56]	@ (80017f4 <TIM5_IRQHandler+0x84>)
 80017bc:	6913      	ldr	r3, [r2, #16]
 80017be:	f023 0310 	bic.w	r3, r3, #16
 80017c2:	6113      	str	r3, [r2, #16]
 80017c4:	6823      	ldr	r3, [r4, #0]
 80017c6:	f8d3 308c 	ldr.w	r3, [r3, #140]	@ 0x8c
 80017ca:	b12b      	cbz	r3, 80017d8 <TIM5_IRQHandler+0x68>
 80017cc:	4798      	blx	r3
 80017ce:	4a09      	ldr	r2, [pc, #36]	@ (80017f4 <TIM5_IRQHandler+0x84>)
 80017d0:	6913      	ldr	r3, [r2, #16]
 80017d2:	f023 0301 	bic.w	r3, r3, #1
 80017d6:	6113      	str	r3, [r2, #16]
 80017d8:	6823      	ldr	r3, [r4, #0]
 80017da:	f8d3 30a4 	ldr.w	r3, [r3, #164]	@ 0xa4
 80017de:	b12b      	cbz	r3, 80017ec <TIM5_IRQHandler+0x7c>
 80017e0:	4798      	blx	r3
 80017e2:	4a04      	ldr	r2, [pc, #16]	@ (80017f4 <TIM5_IRQHandler+0x84>)
 80017e4:	6913      	ldr	r3, [r2, #16]
 80017e6:	f023 0340 	bic.w	r3, r3, #64	@ 0x40
 80017ea:	6113      	str	r3, [r2, #16]
 80017ec:	bd10      	pop	{r4, pc}
 80017ee:	bf00      	nop
 80017f0:	200000dc 	.word	0x200000dc
 80017f4:	40000c00 	.word	0x40000c00

080017f8 <TIM6_DAC_IRQHandler>:
 80017f8:	4b05      	ldr	r3, [pc, #20]	@ (8001810 <TIM6_DAC_IRQHandler+0x18>)
 80017fa:	681b      	ldr	r3, [r3, #0]
 80017fc:	f8d3 208c 	ldr.w	r2, [r3, #140]	@ 0x8c
 8001800:	b12a      	cbz	r2, 800180e <TIM6_DAC_IRQHandler+0x16>
 8001802:	4904      	ldr	r1, [pc, #16]	@ (8001814 <TIM6_DAC_IRQHandler+0x1c>)
 8001804:	690b      	ldr	r3, [r1, #16]
 8001806:	f023 0301 	bic.w	r3, r3, #1
 800180a:	610b      	str	r3, [r1, #16]
 800180c:	4710      	bx	r2
 800180e:	4770      	bx	lr
 8001810:	200000d8 	.word	0x200000d8
 8001814:	40001000 	.word	0x40001000

08001818 <TIM7_IRQHandler>:
 8001818:	b508      	push	{r3, lr}
 800181a:	4b06      	ldr	r3, [pc, #24]	@ (8001834 <TIM7_IRQHandler+0x1c>)
 800181c:	681b      	ldr	r3, [r3, #0]
 800181e:	f8d3 308c 	ldr.w	r3, [r3, #140]	@ 0x8c
 8001822:	b12b      	cbz	r3, 8001830 <TIM7_IRQHandler+0x18>
 8001824:	4798      	blx	r3
 8001826:	4a04      	ldr	r2, [pc, #16]	@ (8001838 <TIM7_IRQHandler+0x20>)
 8001828:	6913      	ldr	r3, [r2, #16]
 800182a:	f023 0301 	bic.w	r3, r3, #1
 800182e:	6113      	str	r3, [r2, #16]
 8001830:	bd08      	pop	{r3, pc}
 8001832:	bf00      	nop
 8001834:	200000d4 	.word	0x200000d4
 8001838:	40001400 	.word	0x40001400

0800183c <TIM8_BRK_TIM12_IRQHandler>:
 800183c:	4b1a      	ldr	r3, [pc, #104]	@ (80018a8 <TIM8_BRK_TIM12_IRQHandler+0x6c>)
 800183e:	681b      	ldr	r3, [r3, #0]
 8001840:	f8d3 30a8 	ldr.w	r3, [r3, #168]	@ 0xa8
 8001844:	b510      	push	{r4, lr}
 8001846:	b12b      	cbz	r3, 8001854 <TIM8_BRK_TIM12_IRQHandler+0x18>
 8001848:	4798      	blx	r3
 800184a:	4a18      	ldr	r2, [pc, #96]	@ (80018ac <TIM8_BRK_TIM12_IRQHandler+0x70>)
 800184c:	6913      	ldr	r3, [r2, #16]
 800184e:	f023 0380 	bic.w	r3, r3, #128	@ 0x80
 8001852:	6113      	str	r3, [r2, #16]
 8001854:	4c16      	ldr	r4, [pc, #88]	@ (80018b0 <TIM8_BRK_TIM12_IRQHandler+0x74>)
 8001856:	6823      	ldr	r3, [r4, #0]
 8001858:	f8d3 3090 	ldr.w	r3, [r3, #144]	@ 0x90
 800185c:	b12b      	cbz	r3, 800186a <TIM8_BRK_TIM12_IRQHandler+0x2e>
 800185e:	4798      	blx	r3
 8001860:	4a14      	ldr	r2, [pc, #80]	@ (80018b4 <TIM8_BRK_TIM12_IRQHandler+0x78>)
 8001862:	6913      	ldr	r3, [r2, #16]
 8001864:	f023 0302 	bic.w	r3, r3, #2
 8001868:	6113      	str	r3, [r2, #16]
 800186a:	6823      	ldr	r3, [r4, #0]
 800186c:	f8d3 3094 	ldr.w	r3, [r3, #148]	@ 0x94
 8001870:	b12b      	cbz	r3, 800187e <TIM8_BRK_TIM12_IRQHandler+0x42>
 8001872:	4798      	blx	r3
 8001874:	4a0f      	ldr	r2, [pc, #60]	@ (80018b4 <TIM8_BRK_TIM12_IRQHandler+0x78>)
 8001876:	6913      	ldr	r3, [r2, #16]
 8001878:	f023 0304 	bic.w	r3, r3, #4
 800187c:	6113      	str	r3, [r2, #16]
 800187e:	6823      	ldr	r3, [r4, #0]
 8001880:	f8d3 308c 	ldr.w	r3, [r3, #140]	@ 0x8c
 8001884:	b12b      	cbz	r3, 8001892 <TIM8_BRK_TIM12_IRQHandler+0x56>
 8001886:	4798      	blx	r3
 8001888:	4a0a      	ldr	r2, [pc, #40]	@ (80018b4 <TIM8_BRK_TIM12_IRQHandler+0x78>)
 800188a:	6913      	ldr	r3, [r2, #16]
 800188c:	f023 0301 	bic.w	r3, r3, #1
 8001890:	6113      	str	r3, [r2, #16]
 8001892:	6823      	ldr	r3, [r4, #0]
 8001894:	f8d3 30a4 	ldr.w	r3, [r3, #164]	@ 0xa4
 8001898:	b12b      	cbz	r3, 80018a6 <TIM8_BRK_TIM12_IRQHandler+0x6a>
 800189a:	4798      	blx	r3
 800189c:	4a05      	ldr	r2, [pc, #20]	@ (80018b4 <TIM8_BRK_TIM12_IRQHandler+0x78>)
 800189e:	6913      	ldr	r3, [r2, #16]
 80018a0:	f023 0340 	bic.w	r3, r3, #64	@ 0x40
 80018a4:	6113      	str	r3, [r2, #16]
 80018a6:	bd10      	pop	{r4, pc}
 80018a8:	200000d0 	.word	0x200000d0
 80018ac:	40010000 	.word	0x40010000
 80018b0:	200000c0 	.word	0x200000c0
 80018b4:	40014000 	.word	0x40014000

080018b8 <TIM8_UP_TIM13_IRQHandler>:
 80018b8:	4b10      	ldr	r3, [pc, #64]	@ (80018fc <TIM8_UP_TIM13_IRQHandler+0x44>)
 80018ba:	681b      	ldr	r3, [r3, #0]
 80018bc:	f8d3 308c 	ldr.w	r3, [r3, #140]	@ 0x8c
 80018c0:	b510      	push	{r4, lr}
 80018c2:	b12b      	cbz	r3, 80018d0 <TIM8_UP_TIM13_IRQHandler+0x18>
 80018c4:	4798      	blx	r3
 80018c6:	4a0e      	ldr	r2, [pc, #56]	@ (8001900 <TIM8_UP_TIM13_IRQHandler+0x48>)
 80018c8:	6913      	ldr	r3, [r2, #16]
 80018ca:	f023 0301 	bic.w	r3, r3, #1
 80018ce:	6113      	str	r3, [r2, #16]
 80018d0:	4c0c      	ldr	r4, [pc, #48]	@ (8001904 <TIM8_UP_TIM13_IRQHandler+0x4c>)
 80018d2:	6823      	ldr	r3, [r4, #0]
 80018d4:	f8d3 308c 	ldr.w	r3, [r3, #140]	@ 0x8c
 80018d8:	b12b      	cbz	r3, 80018e6 <TIM8_UP_TIM13_IRQHandler+0x2e>
 80018da:	4798      	blx	r3
 80018dc:	4a0a      	ldr	r2, [pc, #40]	@ (8001908 <TIM8_UP_TIM13_IRQHandler+0x50>)
 80018de:	6913      	ldr	r3, [r2, #16]
 80018e0:	f023 0301 	bic.w	r3, r3, #1
 80018e4:	6113      	str	r3, [r2, #16]
 80018e6:	6823      	ldr	r3, [r4, #0]
 80018e8:	f8d3 3090 	ldr.w	r3, [r3, #144]	@ 0x90
 80018ec:	b12b      	cbz	r3, 80018fa <TIM8_UP_TIM13_IRQHandler+0x42>
 80018ee:	4798      	blx	r3
 80018f0:	4a05      	ldr	r2, [pc, #20]	@ (8001908 <TIM8_UP_TIM13_IRQHandler+0x50>)
 80018f2:	6913      	ldr	r3, [r2, #16]
 80018f4:	f023 0302 	bic.w	r3, r3, #2
 80018f8:	6113      	str	r3, [r2, #16]
 80018fa:	bd10      	pop	{r4, pc}
 80018fc:	200000ec 	.word	0x200000ec
 8001900:	40010000 	.word	0x40010000
 8001904:	200000bc 	.word	0x200000bc
 8001908:	40001c00 	.word	0x40001c00

0800190c <TIM8_TRG_COM_TIM14_IRQHandler>:
 800190c:	b510      	push	{r4, lr}
 800190e:	4c15      	ldr	r4, [pc, #84]	@ (8001964 <TIM8_TRG_COM_TIM14_IRQHandler+0x58>)
 8001910:	6823      	ldr	r3, [r4, #0]
 8001912:	f8d3 30a4 	ldr.w	r3, [r3, #164]	@ 0xa4
 8001916:	b12b      	cbz	r3, 8001924 <TIM8_TRG_COM_TIM14_IRQHandler+0x18>
 8001918:	4798      	blx	r3
 800191a:	4a13      	ldr	r2, [pc, #76]	@ (8001968 <TIM8_TRG_COM_TIM14_IRQHandler+0x5c>)
 800191c:	6913      	ldr	r3, [r2, #16]
 800191e:	f023 0340 	bic.w	r3, r3, #64	@ 0x40
 8001922:	6113      	str	r3, [r2, #16]
 8001924:	6823      	ldr	r3, [r4, #0]
 8001926:	f8d3 30a0 	ldr.w	r3, [r3, #160]	@ 0xa0
 800192a:	b12b      	cbz	r3, 8001938 <TIM8_TRG_COM_TIM14_IRQHandler+0x2c>
 800192c:	4798      	blx	r3
 800192e:	4a0e      	ldr	r2, [pc, #56]	@ (8001968 <TIM8_TRG_COM_TIM14_IRQHandler+0x5c>)
 8001930:	6913      	ldr	r3, [r2, #16]
 8001932:	f023 0320 	bic.w	r3, r3, #32
 8001936:	6113      	str	r3, [r2, #16]
 8001938:	4c0c      	ldr	r4, [pc, #48]	@ (800196c <TIM8_TRG_COM_TIM14_IRQHandler+0x60>)
 800193a:	6823      	ldr	r3, [r4, #0]
 800193c:	f8d3 308c 	ldr.w	r3, [r3, #140]	@ 0x8c
 8001940:	b12b      	cbz	r3, 800194e <TIM8_TRG_COM_TIM14_IRQHandler+0x42>
 8001942:	4798      	blx	r3
 8001944:	4a0a      	ldr	r2, [pc, #40]	@ (8001970 <TIM8_TRG_COM_TIM14_IRQHandler+0x64>)
 8001946:	6913      	ldr	r3, [r2, #16]
 8001948:	f023 0301 	bic.w	r3, r3, #1
 800194c:	6113      	str	r3, [r2, #16]
 800194e:	6823      	ldr	r3, [r4, #0]
 8001950:	f8d3 3090 	ldr.w	r3, [r3, #144]	@ 0x90
 8001954:	b12b      	cbz	r3, 8001962 <TIM8_TRG_COM_TIM14_IRQHandler+0x56>
 8001956:	4798      	blx	r3
 8001958:	4a05      	ldr	r2, [pc, #20]	@ (8001970 <TIM8_TRG_COM_TIM14_IRQHandler+0x64>)
 800195a:	6913      	ldr	r3, [r2, #16]
 800195c:	f023 0302 	bic.w	r3, r3, #2
 8001960:	6113      	str	r3, [r2, #16]
 8001962:	bd10      	pop	{r4, pc}
 8001964:	200000d0 	.word	0x200000d0
 8001968:	40010400 	.word	0x40010400
 800196c:	200000b8 	.word	0x200000b8
 8001970:	40002000 	.word	0x40002000

08001974 <TIM8_CC_IRQHandler>:
 8001974:	b510      	push	{r4, lr}
 8001976:	4c15      	ldr	r4, [pc, #84]	@ (80019cc <TIM8_CC_IRQHandler+0x58>)
 8001978:	6823      	ldr	r3, [r4, #0]
 800197a:	f8d3 3090 	ldr.w	r3, [r3, #144]	@ 0x90
 800197e:	b12b      	cbz	r3, 800198c <TIM8_CC_IRQHandler+0x18>
 8001980:	4798      	blx	r3
 8001982:	4a13      	ldr	r2, [pc, #76]	@ (80019d0 <TIM8_CC_IRQHandler+0x5c>)
 8001984:	6913      	ldr	r3, [r2, #16]
 8001986:	f023 0302 	bic.w	r3, r3, #2
 800198a:	6113      	str	r3, [r2, #16]
 800198c:	6823      	ldr	r3, [r4, #0]
 800198e:	f8d3 3094 	ldr.w	r3, [r3, #148]	@ 0x94
 8001992:	b12b      	cbz	r3, 80019a0 <TIM8_CC_IRQHandler+0x2c>
 8001994:	4798      	blx	r3
 8001996:	4a0e      	ldr	r2, [pc, #56]	@ (80019d0 <TIM8_CC_IRQHandler+0x5c>)
 8001998:	6913      	ldr	r3, [r2, #16]
 800199a:	f023 0304 	bic.w	r3, r3, #4
 800199e:	6113      	str	r3, [r2, #16]
 80019a0:	6823      	ldr	r3, [r4, #0]
 80019a2:	f8d3 3098 	ldr.w	r3, [r3, #152]	@ 0x98
 80019a6:	b12b      	cbz	r3, 80019b4 <TIM8_CC_IRQHandler+0x40>
 80019a8:	4798      	blx	r3
 80019aa:	4a09      	ldr	r2, [pc, #36]	@ (80019d0 <TIM8_CC_IRQHandler+0x5c>)
 80019ac:	6913      	ldr	r3, [r2, #16]
 80019ae:	f023 0308 	bic.w	r3, r3, #8
 80019b2:	6113      	str	r3, [r2, #16]
 80019b4:	6823      	ldr	r3, [r4, #0]
 80019b6:	f8d3 309c 	ldr.w	r3, [r3, #156]	@ 0x9c
 80019ba:	b12b      	cbz	r3, 80019c8 <TIM8_CC_IRQHandler+0x54>
 80019bc:	4798      	blx	r3
 80019be:	4a04      	ldr	r2, [pc, #16]	@ (80019d0 <TIM8_CC_IRQHandler+0x5c>)
 80019c0:	6913      	ldr	r3, [r2, #16]
 80019c2:	f023 0310 	bic.w	r3, r3, #16
 80019c6:	6113      	str	r3, [r2, #16]
 80019c8:	bd10      	pop	{r4, pc}
 80019ca:	bf00      	nop
 80019cc:	200000d0 	.word	0x200000d0
 80019d0:	40010400 	.word	0x40010400

080019d4 <Timer_Init>:
 80019d4:	b5f0      	push	{r4, r5, r6, r7, lr}
 80019d6:	6803      	ldr	r3, [r0, #0]
 80019d8:	4aa7      	ldr	r2, [pc, #668]	@ (8001c78 <Timer_Init+0x2a4>)
 80019da:	4293      	cmp	r3, r2
 80019dc:	b085      	sub	sp, #20
 80019de:	4604      	mov	r4, r0
 80019e0:	f040 80a7 	bne.w	8001b32 <Timer_Init+0x15e>
 80019e4:	f502 329c 	add.w	r2, r2, #79872	@ 0x13800
 80019e8:	6c53      	ldr	r3, [r2, #68]	@ 0x44
 80019ea:	f043 0301 	orr.w	r3, r3, #1
 80019ee:	6453      	str	r3, [r2, #68]	@ 0x44
 80019f0:	7c03      	ldrb	r3, [r0, #16]
 80019f2:	b173      	cbz	r3, 8001a12 <Timer_Init+0x3e>
 80019f4:	8a83      	ldrh	r3, [r0, #20]
 80019f6:	2ba8      	cmp	r3, #168	@ 0xa8
 80019f8:	d14b      	bne.n	8001a92 <Timer_Init+0xbe>
 80019fa:	2304      	movs	r3, #4
 80019fc:	2701      	movs	r7, #1
 80019fe:	e9cd 3701 	strd	r3, r7, [sp, #4]
 8001a02:	2303      	movs	r3, #3
 8001a04:	9300      	str	r3, [sp, #0]
 8001a06:	489d      	ldr	r0, [pc, #628]	@ (8001c7c <Timer_Init+0x2a8>)
 8001a08:	2302      	movs	r3, #2
 8001a0a:	461a      	mov	r2, r3
 8001a0c:	2108      	movs	r1, #8
 8001a0e:	f7ff fc9f 	bl	8001350 <GPIO_Pin_Init>
 8001a12:	7da3      	ldrb	r3, [r4, #22]
 8001a14:	b173      	cbz	r3, 8001a34 <Timer_Init+0x60>
 8001a16:	8b63      	ldrh	r3, [r4, #26]
 8001a18:	2ba9      	cmp	r3, #169	@ 0xa9
 8001a1a:	d147      	bne.n	8001aac <Timer_Init+0xd8>
 8001a1c:	2304      	movs	r3, #4
 8001a1e:	2501      	movs	r5, #1
 8001a20:	e9cd 3501 	strd	r3, r5, [sp, #4]
 8001a24:	2303      	movs	r3, #3
 8001a26:	9300      	str	r3, [sp, #0]
 8001a28:	4894      	ldr	r0, [pc, #592]	@ (8001c7c <Timer_Init+0x2a8>)
 8001a2a:	2302      	movs	r3, #2
 8001a2c:	461a      	mov	r2, r3
 8001a2e:	2109      	movs	r1, #9
 8001a30:	f7ff fc8e 	bl	8001350 <GPIO_Pin_Init>
 8001a34:	7f23      	ldrb	r3, [r4, #28]
 8001a36:	b17b      	cbz	r3, 8001a58 <Timer_Init+0x84>
 8001a38:	8c23      	ldrh	r3, [r4, #32]
 8001a3a:	f5b3 6f21 	cmp.w	r3, #2576	@ 0xa10
 8001a3e:	d144      	bne.n	8001aca <Timer_Init+0xf6>
 8001a40:	2304      	movs	r3, #4
 8001a42:	2101      	movs	r1, #1
 8001a44:	e9cd 3101 	strd	r3, r1, [sp, #4]
 8001a48:	2303      	movs	r3, #3
 8001a4a:	9300      	str	r3, [sp, #0]
 8001a4c:	488b      	ldr	r0, [pc, #556]	@ (8001c7c <Timer_Init+0x2a8>)
 8001a4e:	2302      	movs	r3, #2
 8001a50:	461a      	mov	r2, r3
 8001a52:	210a      	movs	r1, #10
 8001a54:	f7ff fc7c 	bl	8001350 <GPIO_Pin_Init>
 8001a58:	f894 3022 	ldrb.w	r3, [r4, #34]	@ 0x22
 8001a5c:	b18b      	cbz	r3, 8001a82 <Timer_Init+0xae>
 8001a5e:	8ce3      	ldrh	r3, [r4, #38]	@ 0x26
 8001a60:	f640 2211 	movw	r2, #2577	@ 0xa11
 8001a64:	4293      	cmp	r3, r2
 8001a66:	d13f      	bne.n	8001ae8 <Timer_Init+0x114>
 8001a68:	2304      	movs	r3, #4
 8001a6a:	f04f 0e01 	mov.w	lr, #1
 8001a6e:	e9cd 3e01 	strd	r3, lr, [sp, #4]
 8001a72:	2303      	movs	r3, #3
 8001a74:	9300      	str	r3, [sp, #0]
 8001a76:	4881      	ldr	r0, [pc, #516]	@ (8001c7c <Timer_Init+0x2a8>)
 8001a78:	2302      	movs	r3, #2
 8001a7a:	461a      	mov	r2, r3
 8001a7c:	210b      	movs	r1, #11
 8001a7e:	f7ff fc67 	bl	8001350 <GPIO_Pin_Init>
 8001a82:	f894 3029 	ldrb.w	r3, [r4, #41]	@ 0x29
 8001a86:	2b80      	cmp	r3, #128	@ 0x80
 8001a88:	d13e      	bne.n	8001b08 <Timer_Init+0x134>
 8001a8a:	2018      	movs	r0, #24
 8001a8c:	f7ff fcc8 	bl	8001420 <__NVIC_EnableIRQ.part.0>
 8001a90:	e102      	b.n	8001c98 <Timer_Init+0x2c4>
 8001a92:	2be9      	cmp	r3, #233	@ 0xe9
 8001a94:	d1bd      	bne.n	8001a12 <Timer_Init+0x3e>
 8001a96:	2304      	movs	r3, #4
 8001a98:	2601      	movs	r6, #1
 8001a9a:	e9cd 3601 	strd	r3, r6, [sp, #4]
 8001a9e:	2303      	movs	r3, #3
 8001aa0:	9300      	str	r3, [sp, #0]
 8001aa2:	2302      	movs	r3, #2
 8001aa4:	4876      	ldr	r0, [pc, #472]	@ (8001c80 <Timer_Init+0x2ac>)
 8001aa6:	461a      	mov	r2, r3
 8001aa8:	2109      	movs	r1, #9
 8001aaa:	e7b0      	b.n	8001a0e <Timer_Init+0x3a>
 8001aac:	f640 6211 	movw	r2, #3601	@ 0xe11
 8001ab0:	4293      	cmp	r3, r2
 8001ab2:	d1bf      	bne.n	8001a34 <Timer_Init+0x60>
 8001ab4:	2304      	movs	r3, #4
 8001ab6:	2001      	movs	r0, #1
 8001ab8:	e9cd 3001 	strd	r3, r0, [sp, #4]
 8001abc:	2303      	movs	r3, #3
 8001abe:	9300      	str	r3, [sp, #0]
 8001ac0:	2302      	movs	r3, #2
 8001ac2:	486f      	ldr	r0, [pc, #444]	@ (8001c80 <Timer_Init+0x2ac>)
 8001ac4:	461a      	mov	r2, r3
 8001ac6:	210b      	movs	r1, #11
 8001ac8:	e7b2      	b.n	8001a30 <Timer_Init+0x5c>
 8001aca:	f640 6213 	movw	r2, #3603	@ 0xe13
 8001ace:	4293      	cmp	r3, r2
 8001ad0:	d1c2      	bne.n	8001a58 <Timer_Init+0x84>
 8001ad2:	2304      	movs	r3, #4
 8001ad4:	2201      	movs	r2, #1
 8001ad6:	e9cd 3201 	strd	r3, r2, [sp, #4]
 8001ada:	2303      	movs	r3, #3
 8001adc:	9300      	str	r3, [sp, #0]
 8001ade:	2302      	movs	r3, #2
 8001ae0:	4867      	ldr	r0, [pc, #412]	@ (8001c80 <Timer_Init+0x2ac>)
 8001ae2:	461a      	mov	r2, r3
 8001ae4:	210d      	movs	r1, #13
 8001ae6:	e7b5      	b.n	8001a54 <Timer_Init+0x80>
 8001ae8:	f640 6214 	movw	r2, #3604	@ 0xe14
 8001aec:	4293      	cmp	r3, r2
 8001aee:	d1c8      	bne.n	8001a82 <Timer_Init+0xae>
 8001af0:	2304      	movs	r3, #4
 8001af2:	f04f 0c01 	mov.w	ip, #1
 8001af6:	e9cd 3c01 	strd	r3, ip, [sp, #4]
 8001afa:	2303      	movs	r3, #3
 8001afc:	9300      	str	r3, [sp, #0]
 8001afe:	2302      	movs	r3, #2
 8001b00:	485f      	ldr	r0, [pc, #380]	@ (8001c80 <Timer_Init+0x2ac>)
 8001b02:	461a      	mov	r2, r3
 8001b04:	210e      	movs	r1, #14
 8001b06:	e7ba      	b.n	8001a7e <Timer_Init+0xaa>
 8001b08:	2b01      	cmp	r3, #1
 8001b0a:	f000 84ef 	beq.w	80024ec <Timer_Init+0xb18>
 8001b0e:	3b02      	subs	r3, #2
 8001b10:	b2db      	uxtb	r3, r3
 8001b12:	2b1e      	cmp	r3, #30
 8001b14:	f200 80c0 	bhi.w	8001c98 <Timer_Init+0x2c4>
 8001b18:	2201      	movs	r2, #1
 8001b1a:	409a      	lsls	r2, r3
 8001b1c:	f244 0145 	movw	r1, #16453	@ 0x4045
 8001b20:	420a      	tst	r2, r1
 8001b22:	d104      	bne.n	8001b2e <Timer_Init+0x15a>
 8001b24:	2b1e      	cmp	r3, #30
 8001b26:	f040 80b7 	bne.w	8001c98 <Timer_Init+0x2c4>
 8001b2a:	201a      	movs	r0, #26
 8001b2c:	e7ae      	b.n	8001a8c <Timer_Init+0xb8>
 8001b2e:	201b      	movs	r0, #27
 8001b30:	e7ac      	b.n	8001a8c <Timer_Init+0xb8>
 8001b32:	f1b3 4f80 	cmp.w	r3, #1073741824	@ 0x40000000
 8001b36:	f040 821c 	bne.w	8001f72 <Timer_Init+0x59e>
 8001b3a:	4a52      	ldr	r2, [pc, #328]	@ (8001c84 <Timer_Init+0x2b0>)
 8001b3c:	6c13      	ldr	r3, [r2, #64]	@ 0x40
 8001b3e:	f043 0301 	orr.w	r3, r3, #1
 8001b42:	6413      	str	r3, [r2, #64]	@ 0x40
 8001b44:	4b50      	ldr	r3, [pc, #320]	@ (8001c88 <Timer_Init+0x2b4>)
 8001b46:	6018      	str	r0, [r3, #0]
 8001b48:	7c03      	ldrb	r3, [r0, #16]
 8001b4a:	b173      	cbz	r3, 8001b6a <Timer_Init+0x196>
 8001b4c:	8a83      	ldrh	r3, [r0, #20]
 8001b4e:	2ba0      	cmp	r3, #160	@ 0xa0
 8001b50:	d14d      	bne.n	8001bee <Timer_Init+0x21a>
 8001b52:	2304      	movs	r3, #4
 8001b54:	2701      	movs	r7, #1
 8001b56:	e9cd 3701 	strd	r3, r7, [sp, #4]
 8001b5a:	2303      	movs	r3, #3
 8001b5c:	9300      	str	r3, [sp, #0]
 8001b5e:	2300      	movs	r3, #0
 8001b60:	2202      	movs	r2, #2
 8001b62:	4619      	mov	r1, r3
 8001b64:	4845      	ldr	r0, [pc, #276]	@ (8001c7c <Timer_Init+0x2a8>)
 8001b66:	f7ff fbf3 	bl	8001350 <GPIO_Pin_Init>
 8001b6a:	7da3      	ldrb	r3, [r4, #22]
 8001b6c:	b16b      	cbz	r3, 8001b8a <Timer_Init+0x1b6>
 8001b6e:	8b63      	ldrh	r3, [r4, #26]
 8001b70:	2ba1      	cmp	r3, #161	@ 0xa1
 8001b72:	d156      	bne.n	8001c22 <Timer_Init+0x24e>
 8001b74:	2304      	movs	r3, #4
 8001b76:	2101      	movs	r1, #1
 8001b78:	e9cd 3101 	strd	r3, r1, [sp, #4]
 8001b7c:	483f      	ldr	r0, [pc, #252]	@ (8001c7c <Timer_Init+0x2a8>)
 8001b7e:	2303      	movs	r3, #3
 8001b80:	9300      	str	r3, [sp, #0]
 8001b82:	2202      	movs	r2, #2
 8001b84:	2300      	movs	r3, #0
 8001b86:	f7ff fbe3 	bl	8001350 <GPIO_Pin_Init>
 8001b8a:	7f23      	ldrb	r3, [r4, #28]
 8001b8c:	b173      	cbz	r3, 8001bac <Timer_Init+0x1d8>
 8001b8e:	8c23      	ldrh	r3, [r4, #32]
 8001b90:	2ba2      	cmp	r3, #162	@ 0xa2
 8001b92:	d152      	bne.n	8001c3a <Timer_Init+0x266>
 8001b94:	2304      	movs	r3, #4
 8001b96:	2101      	movs	r1, #1
 8001b98:	e9cd 3101 	strd	r3, r1, [sp, #4]
 8001b9c:	2303      	movs	r3, #3
 8001b9e:	9300      	str	r3, [sp, #0]
 8001ba0:	4836      	ldr	r0, [pc, #216]	@ (8001c7c <Timer_Init+0x2a8>)
 8001ba2:	2302      	movs	r3, #2
 8001ba4:	461a      	mov	r2, r3
 8001ba6:	4619      	mov	r1, r3
 8001ba8:	f7ff fbd2 	bl	8001350 <GPIO_Pin_Init>
 8001bac:	f894 3022 	ldrb.w	r3, [r4, #34]	@ 0x22
 8001bb0:	b173      	cbz	r3, 8001bd0 <Timer_Init+0x1fc>
 8001bb2:	8ce3      	ldrh	r3, [r4, #38]	@ 0x26
 8001bb4:	2ba3      	cmp	r3, #163	@ 0xa3
 8001bb6:	d14e      	bne.n	8001c56 <Timer_Init+0x282>
 8001bb8:	2304      	movs	r3, #4
 8001bba:	f04f 0e01 	mov.w	lr, #1
 8001bbe:	e9cd 3e01 	strd	r3, lr, [sp, #4]
 8001bc2:	2103      	movs	r1, #3
 8001bc4:	2302      	movs	r3, #2
 8001bc6:	482d      	ldr	r0, [pc, #180]	@ (8001c7c <Timer_Init+0x2a8>)
 8001bc8:	9100      	str	r1, [sp, #0]
 8001bca:	461a      	mov	r2, r3
 8001bcc:	f7ff fbc0 	bl	8001350 <GPIO_Pin_Init>
 8001bd0:	f894 3029 	ldrb.w	r3, [r4, #41]	@ 0x29
 8001bd4:	2b02      	cmp	r3, #2
 8001bd6:	d008      	beq.n	8001bea <Timer_Init+0x216>
 8001bd8:	2b10      	cmp	r3, #16
 8001bda:	d85b      	bhi.n	8001c94 <Timer_Init+0x2c0>
 8001bdc:	2b00      	cmp	r3, #0
 8001bde:	d05b      	beq.n	8001c98 <Timer_Init+0x2c4>
 8001be0:	4a2a      	ldr	r2, [pc, #168]	@ (8001c8c <Timer_Init+0x2b8>)
 8001be2:	fa22 f303 	lsr.w	r3, r2, r3
 8001be6:	07df      	lsls	r7, r3, #31
 8001be8:	d556      	bpl.n	8001c98 <Timer_Init+0x2c4>
 8001bea:	201c      	movs	r0, #28
 8001bec:	e74e      	b.n	8001a8c <Timer_Init+0xb8>
 8001bee:	f640 2215 	movw	r2, #2581	@ 0xa15
 8001bf2:	4293      	cmp	r3, r2
 8001bf4:	d109      	bne.n	8001c0a <Timer_Init+0x236>
 8001bf6:	2304      	movs	r3, #4
 8001bf8:	2601      	movs	r6, #1
 8001bfa:	e9cd 3601 	strd	r3, r6, [sp, #4]
 8001bfe:	2303      	movs	r3, #3
 8001c00:	9300      	str	r3, [sp, #0]
 8001c02:	2302      	movs	r3, #2
 8001c04:	461a      	mov	r2, r3
 8001c06:	210f      	movs	r1, #15
 8001c08:	e7ac      	b.n	8001b64 <Timer_Init+0x190>
 8001c0a:	2ba5      	cmp	r3, #165	@ 0xa5
 8001c0c:	d1ad      	bne.n	8001b6a <Timer_Init+0x196>
 8001c0e:	2304      	movs	r3, #4
 8001c10:	2501      	movs	r5, #1
 8001c12:	e9cd 3501 	strd	r3, r5, [sp, #4]
 8001c16:	2303      	movs	r3, #3
 8001c18:	9300      	str	r3, [sp, #0]
 8001c1a:	2302      	movs	r3, #2
 8001c1c:	461a      	mov	r2, r3
 8001c1e:	2105      	movs	r1, #5
 8001c20:	e7a0      	b.n	8001b64 <Timer_Init+0x190>
 8001c22:	2bb3      	cmp	r3, #179	@ 0xb3
 8001c24:	d1b1      	bne.n	8001b8a <Timer_Init+0x1b6>
 8001c26:	2304      	movs	r3, #4
 8001c28:	2001      	movs	r0, #1
 8001c2a:	e9cd 3001 	strd	r3, r0, [sp, #4]
 8001c2e:	2103      	movs	r1, #3
 8001c30:	2302      	movs	r3, #2
 8001c32:	4817      	ldr	r0, [pc, #92]	@ (8001c90 <Timer_Init+0x2bc>)
 8001c34:	9100      	str	r1, [sp, #0]
 8001c36:	461a      	mov	r2, r3
 8001c38:	e7a5      	b.n	8001b86 <Timer_Init+0x1b2>
 8001c3a:	f5b3 6f31 	cmp.w	r3, #2832	@ 0xb10
 8001c3e:	d1b5      	bne.n	8001bac <Timer_Init+0x1d8>
 8001c40:	2304      	movs	r3, #4
 8001c42:	2201      	movs	r2, #1
 8001c44:	e9cd 3201 	strd	r3, r2, [sp, #4]
 8001c48:	2303      	movs	r3, #3
 8001c4a:	9300      	str	r3, [sp, #0]
 8001c4c:	2302      	movs	r3, #2
 8001c4e:	4810      	ldr	r0, [pc, #64]	@ (8001c90 <Timer_Init+0x2bc>)
 8001c50:	461a      	mov	r2, r3
 8001c52:	210a      	movs	r1, #10
 8001c54:	e7a8      	b.n	8001ba8 <Timer_Init+0x1d4>
 8001c56:	f640 3211 	movw	r2, #2833	@ 0xb11
 8001c5a:	4293      	cmp	r3, r2
 8001c5c:	d1b8      	bne.n	8001bd0 <Timer_Init+0x1fc>
 8001c5e:	2304      	movs	r3, #4
 8001c60:	f04f 0c01 	mov.w	ip, #1
 8001c64:	e9cd 3c01 	strd	r3, ip, [sp, #4]
 8001c68:	2303      	movs	r3, #3
 8001c6a:	9300      	str	r3, [sp, #0]
 8001c6c:	2302      	movs	r3, #2
 8001c6e:	4808      	ldr	r0, [pc, #32]	@ (8001c90 <Timer_Init+0x2bc>)
 8001c70:	461a      	mov	r2, r3
 8001c72:	210b      	movs	r1, #11
 8001c74:	e7aa      	b.n	8001bcc <Timer_Init+0x1f8>
 8001c76:	bf00      	nop
 8001c78:	40010000 	.word	0x40010000
 8001c7c:	40020000 	.word	0x40020000
 8001c80:	40021000 	.word	0x40021000
 8001c84:	40023800 	.word	0x40023800
 8001c88:	200000e8 	.word	0x200000e8
 8001c8c:	00010112 	.word	0x00010112
 8001c90:	40020400 	.word	0x40020400
 8001c94:	2b40      	cmp	r3, #64	@ 0x40
 8001c96:	d0a8      	beq.n	8001bea <Timer_Init+0x216>
 8001c98:	6823      	ldr	r3, [r4, #0]
 8001c9a:	f894 6029 	ldrb.w	r6, [r4, #41]	@ 0x29
 8001c9e:	68da      	ldr	r2, [r3, #12]
 8001ca0:	8a60      	ldrh	r0, [r4, #18]
 8001ca2:	f894 502c 	ldrb.w	r5, [r4, #44]	@ 0x2c
 8001ca6:	4332      	orrs	r2, r6
 8001ca8:	2801      	cmp	r0, #1
 8001caa:	60da      	str	r2, [r3, #12]
 8001cac:	d11d      	bne.n	8001cea <Timer_Init+0x316>
 8001cae:	f894 202a 	ldrb.w	r2, [r4, #42]	@ 0x2a
 8001cb2:	b91a      	cbnz	r2, 8001cbc <Timer_Init+0x2e8>
 8001cb4:	6a1a      	ldr	r2, [r3, #32]
 8001cb6:	f022 020a 	bic.w	r2, r2, #10
 8001cba:	621a      	str	r2, [r3, #32]
 8001cbc:	b11d      	cbz	r5, 8001cc6 <Timer_Init+0x2f2>
 8001cbe:	68da      	ldr	r2, [r3, #12]
 8001cc0:	f442 7200 	orr.w	r2, r2, #512	@ 0x200
 8001cc4:	60da      	str	r2, [r3, #12]
 8001cc6:	07b7      	lsls	r7, r6, #30
 8001cc8:	bf42      	ittt	mi
 8001cca:	68da      	ldrmi	r2, [r3, #12]
 8001ccc:	f042 0202 	orrmi.w	r2, r2, #2
 8001cd0:	60da      	strmi	r2, [r3, #12]
 8001cd2:	699a      	ldr	r2, [r3, #24]
 8001cd4:	f042 0201 	orr.w	r2, r2, #1
 8001cd8:	619a      	str	r2, [r3, #24]
 8001cda:	699a      	ldr	r2, [r3, #24]
 8001cdc:	f022 0202 	bic.w	r2, r2, #2
 8001ce0:	619a      	str	r2, [r3, #24]
 8001ce2:	6a1a      	ldr	r2, [r3, #32]
 8001ce4:	f042 0201 	orr.w	r2, r2, #1
 8001ce8:	621a      	str	r2, [r3, #32]
 8001cea:	8b22      	ldrh	r2, [r4, #24]
 8001cec:	2a01      	cmp	r2, #1
 8001cee:	d11d      	bne.n	8001d2c <Timer_Init+0x358>
 8001cf0:	f894 102a 	ldrb.w	r1, [r4, #42]	@ 0x2a
 8001cf4:	b919      	cbnz	r1, 8001cfe <Timer_Init+0x32a>
 8001cf6:	6a19      	ldr	r1, [r3, #32]
 8001cf8:	f021 01a0 	bic.w	r1, r1, #160	@ 0xa0
 8001cfc:	6219      	str	r1, [r3, #32]
 8001cfe:	b11d      	cbz	r5, 8001d08 <Timer_Init+0x334>
 8001d00:	68d9      	ldr	r1, [r3, #12]
 8001d02:	f441 6180 	orr.w	r1, r1, #1024	@ 0x400
 8001d06:	60d9      	str	r1, [r3, #12]
 8001d08:	0771      	lsls	r1, r6, #29
 8001d0a:	bf42      	ittt	mi
 8001d0c:	68d9      	ldrmi	r1, [r3, #12]
 8001d0e:	f041 0104 	orrmi.w	r1, r1, #4
 8001d12:	60d9      	strmi	r1, [r3, #12]
 8001d14:	6999      	ldr	r1, [r3, #24]
 8001d16:	f441 7180 	orr.w	r1, r1, #256	@ 0x100
 8001d1a:	6199      	str	r1, [r3, #24]
 8001d1c:	6999      	ldr	r1, [r3, #24]
 8001d1e:	f421 7100 	bic.w	r1, r1, #512	@ 0x200
 8001d22:	6199      	str	r1, [r3, #24]
 8001d24:	6a19      	ldr	r1, [r3, #32]
 8001d26:	f041 0110 	orr.w	r1, r1, #16
 8001d2a:	6219      	str	r1, [r3, #32]
 8001d2c:	8be1      	ldrh	r1, [r4, #30]
 8001d2e:	2901      	cmp	r1, #1
 8001d30:	d11d      	bne.n	8001d6e <Timer_Init+0x39a>
 8001d32:	f894 702a 	ldrb.w	r7, [r4, #42]	@ 0x2a
 8001d36:	b91f      	cbnz	r7, 8001d40 <Timer_Init+0x36c>
 8001d38:	6a1f      	ldr	r7, [r3, #32]
 8001d3a:	f427 6720 	bic.w	r7, r7, #2560	@ 0xa00
 8001d3e:	621f      	str	r7, [r3, #32]
 8001d40:	b11d      	cbz	r5, 8001d4a <Timer_Init+0x376>
 8001d42:	68df      	ldr	r7, [r3, #12]
 8001d44:	f447 6700 	orr.w	r7, r7, #2048	@ 0x800
 8001d48:	60df      	str	r7, [r3, #12]
 8001d4a:	0737      	lsls	r7, r6, #28
 8001d4c:	bf42      	ittt	mi
 8001d4e:	68df      	ldrmi	r7, [r3, #12]
 8001d50:	f047 0708 	orrmi.w	r7, r7, #8
 8001d54:	60df      	strmi	r7, [r3, #12]
 8001d56:	69df      	ldr	r7, [r3, #28]
 8001d58:	f047 0701 	orr.w	r7, r7, #1
 8001d5c:	61df      	str	r7, [r3, #28]
 8001d5e:	69df      	ldr	r7, [r3, #28]
 8001d60:	f027 0702 	bic.w	r7, r7, #2
 8001d64:	61df      	str	r7, [r3, #28]
 8001d66:	6a1f      	ldr	r7, [r3, #32]
 8001d68:	f447 7780 	orr.w	r7, r7, #256	@ 0x100
 8001d6c:	621f      	str	r7, [r3, #32]
 8001d6e:	8ca7      	ldrh	r7, [r4, #36]	@ 0x24
 8001d70:	2f01      	cmp	r7, #1
 8001d72:	d123      	bne.n	8001dbc <Timer_Init+0x3e8>
 8001d74:	f894 c02a 	ldrb.w	ip, [r4, #42]	@ 0x2a
 8001d78:	f1bc 0f00 	cmp.w	ip, #0
 8001d7c:	d105      	bne.n	8001d8a <Timer_Init+0x3b6>
 8001d7e:	f8d3 c020 	ldr.w	ip, [r3, #32]
 8001d82:	f42c 4c20 	bic.w	ip, ip, #40960	@ 0xa000
 8001d86:	f8c3 c020 	str.w	ip, [r3, #32]
 8001d8a:	b12d      	cbz	r5, 8001d98 <Timer_Init+0x3c4>
 8001d8c:	f8d3 c00c 	ldr.w	ip, [r3, #12]
 8001d90:	f44c 5c80 	orr.w	ip, ip, #4096	@ 0x1000
 8001d94:	f8c3 c00c 	str.w	ip, [r3, #12]
 8001d98:	06f6      	lsls	r6, r6, #27
 8001d9a:	bf42      	ittt	mi
 8001d9c:	68de      	ldrmi	r6, [r3, #12]
 8001d9e:	f046 0610 	orrmi.w	r6, r6, #16
 8001da2:	60de      	strmi	r6, [r3, #12]
 8001da4:	69de      	ldr	r6, [r3, #28]
 8001da6:	f446 7680 	orr.w	r6, r6, #256	@ 0x100
 8001daa:	61de      	str	r6, [r3, #28]
 8001dac:	69de      	ldr	r6, [r3, #28]
 8001dae:	f426 7600 	bic.w	r6, r6, #512	@ 0x200
 8001db2:	61de      	str	r6, [r3, #28]
 8001db4:	6a1e      	ldr	r6, [r3, #32]
 8001db6:	f446 5680 	orr.w	r6, r6, #4096	@ 0x1000
 8001dba:	621e      	str	r6, [r3, #32]
 8001dbc:	7c26      	ldrb	r6, [r4, #16]
 8001dbe:	b346      	cbz	r6, 8001e12 <Timer_Init+0x43e>
 8001dc0:	2840      	cmp	r0, #64	@ 0x40
 8001dc2:	d003      	beq.n	8001dcc <Timer_Init+0x3f8>
 8001dc4:	f5b0 7f80 	cmp.w	r0, #256	@ 0x100
 8001dc8:	f040 8480 	bne.w	80026cc <Timer_Init+0xcf8>
 8001dcc:	699e      	ldr	r6, [r3, #24]
 8001dce:	f046 0660 	orr.w	r6, r6, #96	@ 0x60
 8001dd2:	619e      	str	r6, [r3, #24]
 8001dd4:	699e      	ldr	r6, [r3, #24]
 8001dd6:	f046 0608 	orr.w	r6, r6, #8
 8001dda:	619e      	str	r6, [r3, #24]
 8001ddc:	6a1e      	ldr	r6, [r3, #32]
 8001dde:	f046 0601 	orr.w	r6, r6, #1
 8001de2:	621e      	str	r6, [r3, #32]
 8001de4:	6c5e      	ldr	r6, [r3, #68]	@ 0x44
 8001de6:	2880      	cmp	r0, #128	@ 0x80
 8001de8:	f446 4600 	orr.w	r6, r6, #32768	@ 0x8000
 8001dec:	645e      	str	r6, [r3, #68]	@ 0x44
 8001dee:	f040 8418 	bne.w	8002622 <Timer_Init+0xc4e>
 8001df2:	6998      	ldr	r0, [r3, #24]
 8001df4:	f040 0060 	orr.w	r0, r0, #96	@ 0x60
 8001df8:	6198      	str	r0, [r3, #24]
 8001dfa:	6998      	ldr	r0, [r3, #24]
 8001dfc:	f040 0008 	orr.w	r0, r0, #8
 8001e00:	6198      	str	r0, [r3, #24]
 8001e02:	6a18      	ldr	r0, [r3, #32]
 8001e04:	f040 0004 	orr.w	r0, r0, #4
 8001e08:	6218      	str	r0, [r3, #32]
 8001e0a:	6c58      	ldr	r0, [r3, #68]	@ 0x44
 8001e0c:	f440 4000 	orr.w	r0, r0, #32768	@ 0x8000
 8001e10:	6458      	str	r0, [r3, #68]	@ 0x44
 8001e12:	7da0      	ldrb	r0, [r4, #22]
 8001e14:	b340      	cbz	r0, 8001e68 <Timer_Init+0x494>
 8001e16:	2a40      	cmp	r2, #64	@ 0x40
 8001e18:	d003      	beq.n	8001e22 <Timer_Init+0x44e>
 8001e1a:	f5b2 7f80 	cmp.w	r2, #256	@ 0x100
 8001e1e:	f040 8453 	bne.w	80026c8 <Timer_Init+0xcf4>
 8001e22:	6998      	ldr	r0, [r3, #24]
 8001e24:	f440 40c0 	orr.w	r0, r0, #24576	@ 0x6000
 8001e28:	6198      	str	r0, [r3, #24]
 8001e2a:	6998      	ldr	r0, [r3, #24]
 8001e2c:	f440 6000 	orr.w	r0, r0, #2048	@ 0x800
 8001e30:	6198      	str	r0, [r3, #24]
 8001e32:	6a18      	ldr	r0, [r3, #32]
 8001e34:	f040 0010 	orr.w	r0, r0, #16
 8001e38:	6218      	str	r0, [r3, #32]
 8001e3a:	6c58      	ldr	r0, [r3, #68]	@ 0x44
 8001e3c:	2a80      	cmp	r2, #128	@ 0x80
 8001e3e:	f440 4000 	orr.w	r0, r0, #32768	@ 0x8000
 8001e42:	6458      	str	r0, [r3, #68]	@ 0x44
 8001e44:	f040 83f3 	bne.w	800262e <Timer_Init+0xc5a>
 8001e48:	699a      	ldr	r2, [r3, #24]
 8001e4a:	f442 42c0 	orr.w	r2, r2, #24576	@ 0x6000
 8001e4e:	619a      	str	r2, [r3, #24]
 8001e50:	699a      	ldr	r2, [r3, #24]
 8001e52:	f442 6200 	orr.w	r2, r2, #2048	@ 0x800
 8001e56:	619a      	str	r2, [r3, #24]
 8001e58:	6a1a      	ldr	r2, [r3, #32]
 8001e5a:	f042 0240 	orr.w	r2, r2, #64	@ 0x40
 8001e5e:	621a      	str	r2, [r3, #32]
 8001e60:	6c5a      	ldr	r2, [r3, #68]	@ 0x44
 8001e62:	f442 4200 	orr.w	r2, r2, #32768	@ 0x8000
 8001e66:	645a      	str	r2, [r3, #68]	@ 0x44
 8001e68:	7f22      	ldrb	r2, [r4, #28]
 8001e6a:	b342      	cbz	r2, 8001ebe <Timer_Init+0x4ea>
 8001e6c:	2940      	cmp	r1, #64	@ 0x40
 8001e6e:	d003      	beq.n	8001e78 <Timer_Init+0x4a4>
 8001e70:	f5b1 7f80 	cmp.w	r1, #256	@ 0x100
 8001e74:	f040 8426 	bne.w	80026c4 <Timer_Init+0xcf0>
 8001e78:	69da      	ldr	r2, [r3, #28]
 8001e7a:	f042 0260 	orr.w	r2, r2, #96	@ 0x60
 8001e7e:	61da      	str	r2, [r3, #28]
 8001e80:	69da      	ldr	r2, [r3, #28]
 8001e82:	f042 0208 	orr.w	r2, r2, #8
 8001e86:	61da      	str	r2, [r3, #28]
 8001e88:	6a1a      	ldr	r2, [r3, #32]
 8001e8a:	f442 7280 	orr.w	r2, r2, #256	@ 0x100
 8001e8e:	621a      	str	r2, [r3, #32]
 8001e90:	6c5a      	ldr	r2, [r3, #68]	@ 0x44
 8001e92:	2980      	cmp	r1, #128	@ 0x80
 8001e94:	f442 4200 	orr.w	r2, r2, #32768	@ 0x8000
 8001e98:	645a      	str	r2, [r3, #68]	@ 0x44
 8001e9a:	f040 83cd 	bne.w	8002638 <Timer_Init+0xc64>
 8001e9e:	69da      	ldr	r2, [r3, #28]
 8001ea0:	f042 0260 	orr.w	r2, r2, #96	@ 0x60
 8001ea4:	61da      	str	r2, [r3, #28]
 8001ea6:	69da      	ldr	r2, [r3, #28]
 8001ea8:	f442 6200 	orr.w	r2, r2, #2048	@ 0x800
 8001eac:	61da      	str	r2, [r3, #28]
 8001eae:	6a1a      	ldr	r2, [r3, #32]
 8001eb0:	f442 6280 	orr.w	r2, r2, #1024	@ 0x400
 8001eb4:	621a      	str	r2, [r3, #32]
 8001eb6:	6c5a      	ldr	r2, [r3, #68]	@ 0x44
 8001eb8:	f442 4200 	orr.w	r2, r2, #32768	@ 0x8000
 8001ebc:	645a      	str	r2, [r3, #68]	@ 0x44
 8001ebe:	f894 2022 	ldrb.w	r2, [r4, #34]	@ 0x22
 8001ec2:	b1b2      	cbz	r2, 8001ef2 <Timer_Init+0x51e>
 8001ec4:	2f40      	cmp	r7, #64	@ 0x40
 8001ec6:	d004      	beq.n	8001ed2 <Timer_Init+0x4fe>
 8001ec8:	f5b7 7f80 	cmp.w	r7, #256	@ 0x100
 8001ecc:	d001      	beq.n	8001ed2 <Timer_Init+0x4fe>
 8001ece:	2f80      	cmp	r7, #128	@ 0x80
 8001ed0:	d10f      	bne.n	8001ef2 <Timer_Init+0x51e>
 8001ed2:	69da      	ldr	r2, [r3, #28]
 8001ed4:	f442 42c0 	orr.w	r2, r2, #24576	@ 0x6000
 8001ed8:	61da      	str	r2, [r3, #28]
 8001eda:	69da      	ldr	r2, [r3, #28]
 8001edc:	f442 6200 	orr.w	r2, r2, #2048	@ 0x800
 8001ee0:	61da      	str	r2, [r3, #28]
 8001ee2:	6a1a      	ldr	r2, [r3, #32]
 8001ee4:	f442 5280 	orr.w	r2, r2, #4096	@ 0x1000
 8001ee8:	621a      	str	r2, [r3, #32]
 8001eea:	6c5a      	ldr	r2, [r3, #68]	@ 0x44
 8001eec:	f442 4200 	orr.w	r2, r2, #32768	@ 0x8000
 8001ef0:	645a      	str	r2, [r3, #68]	@ 0x44
 8001ef2:	7922      	ldrb	r2, [r4, #4]
 8001ef4:	2a20      	cmp	r2, #32
 8001ef6:	d107      	bne.n	8001f08 <Timer_Init+0x534>
 8001ef8:	89e2      	ldrh	r2, [r4, #14]
 8001efa:	62da      	str	r2, [r3, #44]	@ 0x2c
 8001efc:	89a2      	ldrh	r2, [r4, #12]
 8001efe:	629a      	str	r2, [r3, #40]	@ 0x28
 8001f00:	695a      	ldr	r2, [r3, #20]
 8001f02:	f042 0201 	orr.w	r2, r2, #1
 8001f06:	615a      	str	r2, [r3, #20]
 8001f08:	f894 2028 	ldrb.w	r2, [r4, #40]	@ 0x28
 8001f0c:	2a01      	cmp	r2, #1
 8001f0e:	f040 8398 	bne.w	8002642 <Timer_Init+0xc6e>
 8001f12:	2200      	movs	r2, #0
 8001f14:	609a      	str	r2, [r3, #8]
 8001f16:	605a      	str	r2, [r3, #4]
 8001f18:	619a      	str	r2, [r3, #24]
 8001f1a:	689a      	ldr	r2, [r3, #8]
 8001f1c:	f022 0207 	bic.w	r2, r2, #7
 8001f20:	609a      	str	r2, [r3, #8]
 8001f22:	689a      	ldr	r2, [r3, #8]
 8001f24:	f042 0203 	orr.w	r2, r2, #3
 8001f28:	609a      	str	r2, [r3, #8]
 8001f2a:	699a      	ldr	r2, [r3, #24]
 8001f2c:	f442 4200 	orr.w	r2, r2, #32768	@ 0x8000
 8001f30:	f042 0280 	orr.w	r2, r2, #128	@ 0x80
 8001f34:	619a      	str	r2, [r3, #24]
 8001f36:	699a      	ldr	r2, [r3, #24]
 8001f38:	f422 7240 	bic.w	r2, r2, #768	@ 0x300
 8001f3c:	f022 0203 	bic.w	r2, r2, #3
 8001f40:	619a      	str	r2, [r3, #24]
 8001f42:	699a      	ldr	r2, [r3, #24]
 8001f44:	f442 7280 	orr.w	r2, r2, #256	@ 0x100
 8001f48:	f042 0201 	orr.w	r2, r2, #1
 8001f4c:	619a      	str	r2, [r3, #24]
 8001f4e:	6a1a      	ldr	r2, [r3, #32]
 8001f50:	f022 0222 	bic.w	r2, r2, #34	@ 0x22
 8001f54:	621a      	str	r2, [r3, #32]
 8001f56:	f8d4 2088 	ldr.w	r2, [r4, #136]	@ 0x88
 8001f5a:	3a01      	subs	r2, #1
 8001f5c:	62da      	str	r2, [r3, #44]	@ 0x2c
 8001f5e:	2d00      	cmp	r5, #0
 8001f60:	f000 83b6 	beq.w	80026d0 <Timer_Init+0xcfc>
 8001f64:	f104 0030 	add.w	r0, r4, #48	@ 0x30
 8001f68:	b005      	add	sp, #20
 8001f6a:	e8bd 40f0 	ldmia.w	sp!, {r4, r5, r6, r7, lr}
 8001f6e:	f7fe bff9 	b.w	8000f64 <DMA_Init>
 8001f72:	4a9d      	ldr	r2, [pc, #628]	@ (80021e8 <Timer_Init+0x814>)
 8001f74:	4293      	cmp	r3, r2
 8001f76:	f040 80a3 	bne.w	80020c0 <Timer_Init+0x6ec>
 8001f7a:	f502 320d 	add.w	r2, r2, #144384	@ 0x23400
 8001f7e:	6c13      	ldr	r3, [r2, #64]	@ 0x40
 8001f80:	f043 0302 	orr.w	r3, r3, #2
 8001f84:	6413      	str	r3, [r2, #64]	@ 0x40
 8001f86:	7c03      	ldrb	r3, [r0, #16]
 8001f88:	b16b      	cbz	r3, 8001fa6 <Timer_Init+0x5d2>
 8001f8a:	8a83      	ldrh	r3, [r0, #20]
 8001f8c:	2ba6      	cmp	r3, #166	@ 0xa6
 8001f8e:	d14c      	bne.n	800202a <Timer_Init+0x656>
 8001f90:	2204      	movs	r2, #4
 8001f92:	2302      	movs	r3, #2
 8001f94:	e9cd 2301 	strd	r2, r3, [sp, #4]
 8001f98:	4894      	ldr	r0, [pc, #592]	@ (80021ec <Timer_Init+0x818>)
 8001f9a:	2203      	movs	r2, #3
 8001f9c:	9200      	str	r2, [sp, #0]
 8001f9e:	2106      	movs	r1, #6
 8001fa0:	461a      	mov	r2, r3
 8001fa2:	f7ff f9d5 	bl	8001350 <GPIO_Pin_Init>
 8001fa6:	7da3      	ldrb	r3, [r4, #22]
 8001fa8:	b16b      	cbz	r3, 8001fc6 <Timer_Init+0x5f2>
 8001faa:	8b63      	ldrh	r3, [r4, #26]
 8001fac:	2ba7      	cmp	r3, #167	@ 0xa7
 8001fae:	d153      	bne.n	8002058 <Timer_Init+0x684>
 8001fb0:	2204      	movs	r2, #4
 8001fb2:	2302      	movs	r3, #2
 8001fb4:	e9cd 2301 	strd	r2, r3, [sp, #4]
 8001fb8:	488c      	ldr	r0, [pc, #560]	@ (80021ec <Timer_Init+0x818>)
 8001fba:	2203      	movs	r2, #3
 8001fbc:	9200      	str	r2, [sp, #0]
 8001fbe:	2107      	movs	r1, #7
 8001fc0:	461a      	mov	r2, r3
 8001fc2:	f7ff f9c5 	bl	8001350 <GPIO_Pin_Init>
 8001fc6:	7f23      	ldrb	r3, [r4, #28]
 8001fc8:	b16b      	cbz	r3, 8001fe6 <Timer_Init+0x612>
 8001fca:	8c23      	ldrh	r3, [r4, #32]
 8001fcc:	2bb0      	cmp	r3, #176	@ 0xb0
 8001fce:	d15b      	bne.n	8002088 <Timer_Init+0x6b4>
 8001fd0:	2204      	movs	r2, #4
 8001fd2:	2302      	movs	r3, #2
 8001fd4:	e9cd 2301 	strd	r2, r3, [sp, #4]
 8001fd8:	4885      	ldr	r0, [pc, #532]	@ (80021f0 <Timer_Init+0x81c>)
 8001fda:	2203      	movs	r2, #3
 8001fdc:	9200      	str	r2, [sp, #0]
 8001fde:	2100      	movs	r1, #0
 8001fe0:	461a      	mov	r2, r3
 8001fe2:	f7ff f9b5 	bl	8001350 <GPIO_Pin_Init>
 8001fe6:	f894 3022 	ldrb.w	r3, [r4, #34]	@ 0x22
 8001fea:	b16b      	cbz	r3, 8002008 <Timer_Init+0x634>
 8001fec:	8ce3      	ldrh	r3, [r4, #38]	@ 0x26
 8001fee:	2bb1      	cmp	r3, #177	@ 0xb1
 8001ff0:	d156      	bne.n	80020a0 <Timer_Init+0x6cc>
 8001ff2:	2204      	movs	r2, #4
 8001ff4:	2302      	movs	r3, #2
 8001ff6:	e9cd 2301 	strd	r2, r3, [sp, #4]
 8001ffa:	487d      	ldr	r0, [pc, #500]	@ (80021f0 <Timer_Init+0x81c>)
 8001ffc:	2203      	movs	r2, #3
 8001ffe:	9200      	str	r2, [sp, #0]
 8002000:	2101      	movs	r1, #1
 8002002:	461a      	mov	r2, r3
 8002004:	f7ff f9a4 	bl	8001350 <GPIO_Pin_Init>
 8002008:	f894 3029 	ldrb.w	r3, [r4, #41]	@ 0x29
 800200c:	2b02      	cmp	r3, #2
 800200e:	d00a      	beq.n	8002026 <Timer_Init+0x652>
 8002010:	2b10      	cmp	r3, #16
 8002012:	d851      	bhi.n	80020b8 <Timer_Init+0x6e4>
 8002014:	2b00      	cmp	r3, #0
 8002016:	f43f ae3f 	beq.w	8001c98 <Timer_Init+0x2c4>
 800201a:	4a76      	ldr	r2, [pc, #472]	@ (80021f4 <Timer_Init+0x820>)
 800201c:	fa22 f303 	lsr.w	r3, r2, r3
 8002020:	07de      	lsls	r6, r3, #31
 8002022:	f57f ae39 	bpl.w	8001c98 <Timer_Init+0x2c4>
 8002026:	201d      	movs	r0, #29
 8002028:	e530      	b.n	8001a8c <Timer_Init+0xb8>
 800202a:	2bb4      	cmp	r3, #180	@ 0xb4
 800202c:	d108      	bne.n	8002040 <Timer_Init+0x66c>
 800202e:	2302      	movs	r3, #2
 8002030:	2203      	movs	r2, #3
 8002032:	2104      	movs	r1, #4
 8002034:	9200      	str	r2, [sp, #0]
 8002036:	e9cd 1301 	strd	r1, r3, [sp, #4]
 800203a:	486d      	ldr	r0, [pc, #436]	@ (80021f0 <Timer_Init+0x81c>)
 800203c:	461a      	mov	r2, r3
 800203e:	e7b0      	b.n	8001fa2 <Timer_Init+0x5ce>
 8002040:	2bc6      	cmp	r3, #198	@ 0xc6
 8002042:	d1b0      	bne.n	8001fa6 <Timer_Init+0x5d2>
 8002044:	2204      	movs	r2, #4
 8002046:	2302      	movs	r3, #2
 8002048:	e9cd 2301 	strd	r2, r3, [sp, #4]
 800204c:	2203      	movs	r2, #3
 800204e:	9200      	str	r2, [sp, #0]
 8002050:	4869      	ldr	r0, [pc, #420]	@ (80021f8 <Timer_Init+0x824>)
 8002052:	461a      	mov	r2, r3
 8002054:	2106      	movs	r1, #6
 8002056:	e7a4      	b.n	8001fa2 <Timer_Init+0x5ce>
 8002058:	2bb5      	cmp	r3, #181	@ 0xb5
 800205a:	d109      	bne.n	8002070 <Timer_Init+0x69c>
 800205c:	2204      	movs	r2, #4
 800205e:	2302      	movs	r3, #2
 8002060:	e9cd 2301 	strd	r2, r3, [sp, #4]
 8002064:	2203      	movs	r2, #3
 8002066:	9200      	str	r2, [sp, #0]
 8002068:	4861      	ldr	r0, [pc, #388]	@ (80021f0 <Timer_Init+0x81c>)
 800206a:	461a      	mov	r2, r3
 800206c:	2105      	movs	r1, #5
 800206e:	e7a8      	b.n	8001fc2 <Timer_Init+0x5ee>
 8002070:	2bc7      	cmp	r3, #199	@ 0xc7
 8002072:	d1a8      	bne.n	8001fc6 <Timer_Init+0x5f2>
 8002074:	2204      	movs	r2, #4
 8002076:	2302      	movs	r3, #2
 8002078:	e9cd 2301 	strd	r2, r3, [sp, #4]
 800207c:	2203      	movs	r2, #3
 800207e:	9200      	str	r2, [sp, #0]
 8002080:	485d      	ldr	r0, [pc, #372]	@ (80021f8 <Timer_Init+0x824>)
 8002082:	461a      	mov	r2, r3
 8002084:	2107      	movs	r1, #7
 8002086:	e79c      	b.n	8001fc2 <Timer_Init+0x5ee>
 8002088:	2bc8      	cmp	r3, #200	@ 0xc8
 800208a:	d1ac      	bne.n	8001fe6 <Timer_Init+0x612>
 800208c:	2204      	movs	r2, #4
 800208e:	2302      	movs	r3, #2
 8002090:	e9cd 2301 	strd	r2, r3, [sp, #4]
 8002094:	2203      	movs	r2, #3
 8002096:	9200      	str	r2, [sp, #0]
 8002098:	4857      	ldr	r0, [pc, #348]	@ (80021f8 <Timer_Init+0x824>)
 800209a:	461a      	mov	r2, r3
 800209c:	2108      	movs	r1, #8
 800209e:	e7a0      	b.n	8001fe2 <Timer_Init+0x60e>
 80020a0:	2bc9      	cmp	r3, #201	@ 0xc9
 80020a2:	d1b1      	bne.n	8002008 <Timer_Init+0x634>
 80020a4:	2204      	movs	r2, #4
 80020a6:	2302      	movs	r3, #2
 80020a8:	e9cd 2301 	strd	r2, r3, [sp, #4]
 80020ac:	2203      	movs	r2, #3
 80020ae:	9200      	str	r2, [sp, #0]
 80020b0:	4851      	ldr	r0, [pc, #324]	@ (80021f8 <Timer_Init+0x824>)
 80020b2:	461a      	mov	r2, r3
 80020b4:	2109      	movs	r1, #9
 80020b6:	e7a5      	b.n	8002004 <Timer_Init+0x630>
 80020b8:	2b40      	cmp	r3, #64	@ 0x40
 80020ba:	f47f aded 	bne.w	8001c98 <Timer_Init+0x2c4>
 80020be:	e7b2      	b.n	8002026 <Timer_Init+0x652>
 80020c0:	4a4e      	ldr	r2, [pc, #312]	@ (80021fc <Timer_Init+0x828>)
 80020c2:	4293      	cmp	r3, r2
 80020c4:	f040 809e 	bne.w	8002204 <Timer_Init+0x830>
 80020c8:	f502 320c 	add.w	r2, r2, #143360	@ 0x23000
 80020cc:	6c13      	ldr	r3, [r2, #64]	@ 0x40
 80020ce:	f043 0304 	orr.w	r3, r3, #4
 80020d2:	6413      	str	r3, [r2, #64]	@ 0x40
 80020d4:	7c03      	ldrb	r3, [r0, #16]
 80020d6:	b16b      	cbz	r3, 80020f4 <Timer_Init+0x720>
 80020d8:	8a83      	ldrh	r3, [r0, #20]
 80020da:	2bb6      	cmp	r3, #182	@ 0xb6
 80020dc:	d14c      	bne.n	8002178 <Timer_Init+0x7a4>
 80020de:	2204      	movs	r2, #4
 80020e0:	2302      	movs	r3, #2
 80020e2:	e9cd 2301 	strd	r2, r3, [sp, #4]
 80020e6:	4842      	ldr	r0, [pc, #264]	@ (80021f0 <Timer_Init+0x81c>)
 80020e8:	2203      	movs	r2, #3
 80020ea:	9200      	str	r2, [sp, #0]
 80020ec:	2106      	movs	r1, #6
 80020ee:	461a      	mov	r2, r3
 80020f0:	f7ff f92e 	bl	8001350 <GPIO_Pin_Init>
 80020f4:	7da3      	ldrb	r3, [r4, #22]
 80020f6:	b16b      	cbz	r3, 8002114 <Timer_Init+0x740>
 80020f8:	8b63      	ldrh	r3, [r4, #26]
 80020fa:	2bb7      	cmp	r3, #183	@ 0xb7
 80020fc:	d14a      	bne.n	8002194 <Timer_Init+0x7c0>
 80020fe:	2204      	movs	r2, #4
 8002100:	2302      	movs	r3, #2
 8002102:	e9cd 2301 	strd	r2, r3, [sp, #4]
 8002106:	483a      	ldr	r0, [pc, #232]	@ (80021f0 <Timer_Init+0x81c>)
 8002108:	2203      	movs	r2, #3
 800210a:	9200      	str	r2, [sp, #0]
 800210c:	2107      	movs	r1, #7
 800210e:	461a      	mov	r2, r3
 8002110:	f7ff f91e 	bl	8001350 <GPIO_Pin_Init>
 8002114:	7f23      	ldrb	r3, [r4, #28]
 8002116:	b16b      	cbz	r3, 8002134 <Timer_Init+0x760>
 8002118:	8c23      	ldrh	r3, [r4, #32]
 800211a:	2bb0      	cmp	r3, #176	@ 0xb0
 800211c:	d148      	bne.n	80021b0 <Timer_Init+0x7dc>
 800211e:	2204      	movs	r2, #4
 8002120:	2302      	movs	r3, #2
 8002122:	e9cd 2301 	strd	r2, r3, [sp, #4]
 8002126:	4832      	ldr	r0, [pc, #200]	@ (80021f0 <Timer_Init+0x81c>)
 8002128:	2203      	movs	r2, #3
 800212a:	9200      	str	r2, [sp, #0]
 800212c:	2100      	movs	r1, #0
 800212e:	461a      	mov	r2, r3
 8002130:	f7ff f90e 	bl	8001350 <GPIO_Pin_Init>
 8002134:	f894 3022 	ldrb.w	r3, [r4, #34]	@ 0x22
 8002138:	b16b      	cbz	r3, 8002156 <Timer_Init+0x782>
 800213a:	8ce3      	ldrh	r3, [r4, #38]	@ 0x26
 800213c:	2bb1      	cmp	r3, #177	@ 0xb1
 800213e:	d143      	bne.n	80021c8 <Timer_Init+0x7f4>
 8002140:	2204      	movs	r2, #4
 8002142:	2302      	movs	r3, #2
 8002144:	e9cd 2301 	strd	r2, r3, [sp, #4]
 8002148:	4829      	ldr	r0, [pc, #164]	@ (80021f0 <Timer_Init+0x81c>)
 800214a:	2203      	movs	r2, #3
 800214c:	9200      	str	r2, [sp, #0]
 800214e:	2101      	movs	r1, #1
 8002150:	461a      	mov	r2, r3
 8002152:	f7ff f8fd 	bl	8001350 <GPIO_Pin_Init>
 8002156:	f894 3029 	ldrb.w	r3, [r4, #41]	@ 0x29
 800215a:	2b02      	cmp	r3, #2
 800215c:	d00a      	beq.n	8002174 <Timer_Init+0x7a0>
 800215e:	2b10      	cmp	r3, #16
 8002160:	d83e      	bhi.n	80021e0 <Timer_Init+0x80c>
 8002162:	2b00      	cmp	r3, #0
 8002164:	f43f ad98 	beq.w	8001c98 <Timer_Init+0x2c4>
 8002168:	4a22      	ldr	r2, [pc, #136]	@ (80021f4 <Timer_Init+0x820>)
 800216a:	fa22 f303 	lsr.w	r3, r2, r3
 800216e:	07dd      	lsls	r5, r3, #31
 8002170:	f57f ad92 	bpl.w	8001c98 <Timer_Init+0x2c4>
 8002174:	201e      	movs	r0, #30
 8002176:	e489      	b.n	8001a8c <Timer_Init+0xb8>
 8002178:	f640 5212 	movw	r2, #3346	@ 0xd12
 800217c:	4293      	cmp	r3, r2
 800217e:	d1b9      	bne.n	80020f4 <Timer_Init+0x720>
 8002180:	2204      	movs	r2, #4
 8002182:	2302      	movs	r3, #2
 8002184:	e9cd 2301 	strd	r2, r3, [sp, #4]
 8002188:	2203      	movs	r2, #3
 800218a:	9200      	str	r2, [sp, #0]
 800218c:	481c      	ldr	r0, [pc, #112]	@ (8002200 <Timer_Init+0x82c>)
 800218e:	461a      	mov	r2, r3
 8002190:	210c      	movs	r1, #12
 8002192:	e7ad      	b.n	80020f0 <Timer_Init+0x71c>
 8002194:	f640 5213 	movw	r2, #3347	@ 0xd13
 8002198:	4293      	cmp	r3, r2
 800219a:	d1bb      	bne.n	8002114 <Timer_Init+0x740>
 800219c:	2204      	movs	r2, #4
 800219e:	2302      	movs	r3, #2
 80021a0:	e9cd 2301 	strd	r2, r3, [sp, #4]
 80021a4:	2203      	movs	r2, #3
 80021a6:	9200      	str	r2, [sp, #0]
 80021a8:	4815      	ldr	r0, [pc, #84]	@ (8002200 <Timer_Init+0x82c>)
 80021aa:	461a      	mov	r2, r3
 80021ac:	210d      	movs	r1, #13
 80021ae:	e7af      	b.n	8002110 <Timer_Init+0x73c>
 80021b0:	2bc8      	cmp	r3, #200	@ 0xc8
 80021b2:	d1bf      	bne.n	8002134 <Timer_Init+0x760>
 80021b4:	2204      	movs	r2, #4
 80021b6:	2302      	movs	r3, #2
 80021b8:	e9cd 2301 	strd	r2, r3, [sp, #4]
 80021bc:	2203      	movs	r2, #3
 80021be:	9200      	str	r2, [sp, #0]
 80021c0:	480d      	ldr	r0, [pc, #52]	@ (80021f8 <Timer_Init+0x824>)
 80021c2:	461a      	mov	r2, r3
 80021c4:	2108      	movs	r1, #8
 80021c6:	e7b3      	b.n	8002130 <Timer_Init+0x75c>
 80021c8:	2bc9      	cmp	r3, #201	@ 0xc9
 80021ca:	d1c4      	bne.n	8002156 <Timer_Init+0x782>
 80021cc:	2204      	movs	r2, #4
 80021ce:	2302      	movs	r3, #2
 80021d0:	e9cd 2301 	strd	r2, r3, [sp, #4]
 80021d4:	2203      	movs	r2, #3
 80021d6:	9200      	str	r2, [sp, #0]
 80021d8:	4807      	ldr	r0, [pc, #28]	@ (80021f8 <Timer_Init+0x824>)
 80021da:	461a      	mov	r2, r3
 80021dc:	2109      	movs	r1, #9
 80021de:	e7b8      	b.n	8002152 <Timer_Init+0x77e>
 80021e0:	2b40      	cmp	r3, #64	@ 0x40
 80021e2:	f47f ad59 	bne.w	8001c98 <Timer_Init+0x2c4>
 80021e6:	e7c5      	b.n	8002174 <Timer_Init+0x7a0>
 80021e8:	40000400 	.word	0x40000400
 80021ec:	40020000 	.word	0x40020000
 80021f0:	40020400 	.word	0x40020400
 80021f4:	00010112 	.word	0x00010112
 80021f8:	40020800 	.word	0x40020800
 80021fc:	40000800 	.word	0x40000800
 8002200:	40020c00 	.word	0x40020c00
 8002204:	4a9d      	ldr	r2, [pc, #628]	@ (800247c <Timer_Init+0xaa8>)
 8002206:	4293      	cmp	r3, r2
 8002208:	d15c      	bne.n	80022c4 <Timer_Init+0x8f0>
 800220a:	f502 320b 	add.w	r2, r2, #142336	@ 0x22c00
 800220e:	6c13      	ldr	r3, [r2, #64]	@ 0x40
 8002210:	f043 0308 	orr.w	r3, r3, #8
 8002214:	6413      	str	r3, [r2, #64]	@ 0x40
 8002216:	7c03      	ldrb	r3, [r0, #16]
 8002218:	b16b      	cbz	r3, 8002236 <Timer_Init+0x862>
 800221a:	8a83      	ldrh	r3, [r0, #20]
 800221c:	2ba0      	cmp	r3, #160	@ 0xa0
 800221e:	d10a      	bne.n	8002236 <Timer_Init+0x862>
 8002220:	2204      	movs	r2, #4
 8002222:	2302      	movs	r3, #2
 8002224:	e9cd 2301 	strd	r2, r3, [sp, #4]
 8002228:	2203      	movs	r2, #3
 800222a:	9200      	str	r2, [sp, #0]
 800222c:	4894      	ldr	r0, [pc, #592]	@ (8002480 <Timer_Init+0xaac>)
 800222e:	461a      	mov	r2, r3
 8002230:	2100      	movs	r1, #0
 8002232:	f7ff f88d 	bl	8001350 <GPIO_Pin_Init>
 8002236:	7da3      	ldrb	r3, [r4, #22]
 8002238:	b16b      	cbz	r3, 8002256 <Timer_Init+0x882>
 800223a:	8b63      	ldrh	r3, [r4, #26]
 800223c:	2ba1      	cmp	r3, #161	@ 0xa1
 800223e:	d10a      	bne.n	8002256 <Timer_Init+0x882>
 8002240:	2204      	movs	r2, #4
 8002242:	2302      	movs	r3, #2
 8002244:	e9cd 2301 	strd	r2, r3, [sp, #4]
 8002248:	2203      	movs	r2, #3
 800224a:	9200      	str	r2, [sp, #0]
 800224c:	488c      	ldr	r0, [pc, #560]	@ (8002480 <Timer_Init+0xaac>)
 800224e:	461a      	mov	r2, r3
 8002250:	2101      	movs	r1, #1
 8002252:	f7ff f87d 	bl	8001350 <GPIO_Pin_Init>
 8002256:	7f23      	ldrb	r3, [r4, #28]
 8002258:	b16b      	cbz	r3, 8002276 <Timer_Init+0x8a2>
 800225a:	8c23      	ldrh	r3, [r4, #32]
 800225c:	2ba2      	cmp	r3, #162	@ 0xa2
 800225e:	d10a      	bne.n	8002276 <Timer_Init+0x8a2>
 8002260:	2204      	movs	r2, #4
 8002262:	2302      	movs	r3, #2
 8002264:	e9cd 2301 	strd	r2, r3, [sp, #4]
 8002268:	2203      	movs	r2, #3
 800226a:	9200      	str	r2, [sp, #0]
 800226c:	4885      	ldr	r0, [pc, #532]	@ (8002484 <Timer_Init+0xab0>)
 800226e:	461a      	mov	r2, r3
 8002270:	2100      	movs	r1, #0
 8002272:	f7ff f86d 	bl	8001350 <GPIO_Pin_Init>
 8002276:	f894 3022 	ldrb.w	r3, [r4, #34]	@ 0x22
 800227a:	b16b      	cbz	r3, 8002298 <Timer_Init+0x8c4>
 800227c:	8ce3      	ldrh	r3, [r4, #38]	@ 0x26
 800227e:	2ba3      	cmp	r3, #163	@ 0xa3
 8002280:	d10a      	bne.n	8002298 <Timer_Init+0x8c4>
 8002282:	2204      	movs	r2, #4
 8002284:	2302      	movs	r3, #2
 8002286:	e9cd 2301 	strd	r2, r3, [sp, #4]
 800228a:	2203      	movs	r2, #3
 800228c:	9200      	str	r2, [sp, #0]
 800228e:	487d      	ldr	r0, [pc, #500]	@ (8002484 <Timer_Init+0xab0>)
 8002290:	461a      	mov	r2, r3
 8002292:	2101      	movs	r1, #1
 8002294:	f7ff f85c 	bl	8001350 <GPIO_Pin_Init>
 8002298:	f894 3029 	ldrb.w	r3, [r4, #41]	@ 0x29
 800229c:	2b02      	cmp	r3, #2
 800229e:	d00a      	beq.n	80022b6 <Timer_Init+0x8e2>
 80022a0:	2b10      	cmp	r3, #16
 80022a2:	d80b      	bhi.n	80022bc <Timer_Init+0x8e8>
 80022a4:	2b00      	cmp	r3, #0
 80022a6:	f43f acf7 	beq.w	8001c98 <Timer_Init+0x2c4>
 80022aa:	4a77      	ldr	r2, [pc, #476]	@ (8002488 <Timer_Init+0xab4>)
 80022ac:	fa22 f303 	lsr.w	r3, r2, r3
 80022b0:	07d8      	lsls	r0, r3, #31
 80022b2:	f57f acf1 	bpl.w	8001c98 <Timer_Init+0x2c4>
 80022b6:	2032      	movs	r0, #50	@ 0x32
 80022b8:	f7ff bbe8 	b.w	8001a8c <Timer_Init+0xb8>
 80022bc:	2b40      	cmp	r3, #64	@ 0x40
 80022be:	f47f aceb 	bne.w	8001c98 <Timer_Init+0x2c4>
 80022c2:	e7f8      	b.n	80022b6 <Timer_Init+0x8e2>
 80022c4:	4a71      	ldr	r2, [pc, #452]	@ (800248c <Timer_Init+0xab8>)
 80022c6:	4293      	cmp	r3, r2
 80022c8:	d10f      	bne.n	80022ea <Timer_Init+0x916>
 80022ca:	4b71      	ldr	r3, [pc, #452]	@ (8002490 <Timer_Init+0xabc>)
 80022cc:	f502 320a 	add.w	r2, r2, #141312	@ 0x22800
 80022d0:	6018      	str	r0, [r3, #0]
 80022d2:	6c13      	ldr	r3, [r2, #64]	@ 0x40
 80022d4:	f043 0310 	orr.w	r3, r3, #16
 80022d8:	6413      	str	r3, [r2, #64]	@ 0x40
 80022da:	f890 3029 	ldrb.w	r3, [r0, #41]	@ 0x29
 80022de:	2b01      	cmp	r3, #1
 80022e0:	f47f acda 	bne.w	8001c98 <Timer_Init+0x2c4>
 80022e4:	2036      	movs	r0, #54	@ 0x36
 80022e6:	f7ff bbd1 	b.w	8001a8c <Timer_Init+0xb8>
 80022ea:	4a6a      	ldr	r2, [pc, #424]	@ (8002494 <Timer_Init+0xac0>)
 80022ec:	4293      	cmp	r3, r2
 80022ee:	d10f      	bne.n	8002310 <Timer_Init+0x93c>
 80022f0:	f502 3209 	add.w	r2, r2, #140288	@ 0x22400
 80022f4:	6c13      	ldr	r3, [r2, #64]	@ 0x40
 80022f6:	f043 0320 	orr.w	r3, r3, #32
 80022fa:	6413      	str	r3, [r2, #64]	@ 0x40
 80022fc:	4b66      	ldr	r3, [pc, #408]	@ (8002498 <Timer_Init+0xac4>)
 80022fe:	6018      	str	r0, [r3, #0]
 8002300:	f890 3029 	ldrb.w	r3, [r0, #41]	@ 0x29
 8002304:	2b01      	cmp	r3, #1
 8002306:	f47f acc7 	bne.w	8001c98 <Timer_Init+0x2c4>
 800230a:	2037      	movs	r0, #55	@ 0x37
 800230c:	f7ff bbbe 	b.w	8001a8c <Timer_Init+0xb8>
 8002310:	4962      	ldr	r1, [pc, #392]	@ (800249c <Timer_Init+0xac8>)
 8002312:	7c02      	ldrb	r2, [r0, #16]
 8002314:	428b      	cmp	r3, r1
 8002316:	d163      	bne.n	80023e0 <Timer_Init+0xa0c>
 8002318:	f501 319a 	add.w	r1, r1, #78848	@ 0x13400
 800231c:	6c4b      	ldr	r3, [r1, #68]	@ 0x44
 800231e:	f043 0302 	orr.w	r3, r3, #2
 8002322:	644b      	str	r3, [r1, #68]	@ 0x44
 8002324:	b16a      	cbz	r2, 8002342 <Timer_Init+0x96e>
 8002326:	8a83      	ldrh	r3, [r0, #20]
 8002328:	2bc6      	cmp	r3, #198	@ 0xc6
 800232a:	d10a      	bne.n	8002342 <Timer_Init+0x96e>
 800232c:	2303      	movs	r3, #3
 800232e:	2204      	movs	r2, #4
 8002330:	e9cd 2301 	strd	r2, r3, [sp, #4]
 8002334:	9300      	str	r3, [sp, #0]
 8002336:	2302      	movs	r3, #2
 8002338:	4859      	ldr	r0, [pc, #356]	@ (80024a0 <Timer_Init+0xacc>)
 800233a:	461a      	mov	r2, r3
 800233c:	2106      	movs	r1, #6
 800233e:	f7ff f807 	bl	8001350 <GPIO_Pin_Init>
 8002342:	7da3      	ldrb	r3, [r4, #22]
 8002344:	b16b      	cbz	r3, 8002362 <Timer_Init+0x98e>
 8002346:	8b63      	ldrh	r3, [r4, #26]
 8002348:	2bc7      	cmp	r3, #199	@ 0xc7
 800234a:	d10a      	bne.n	8002362 <Timer_Init+0x98e>
 800234c:	2303      	movs	r3, #3
 800234e:	2204      	movs	r2, #4
 8002350:	e9cd 2301 	strd	r2, r3, [sp, #4]
 8002354:	9300      	str	r3, [sp, #0]
 8002356:	2302      	movs	r3, #2
 8002358:	4851      	ldr	r0, [pc, #324]	@ (80024a0 <Timer_Init+0xacc>)
 800235a:	461a      	mov	r2, r3
 800235c:	2107      	movs	r1, #7
 800235e:	f7fe fff7 	bl	8001350 <GPIO_Pin_Init>
 8002362:	7f23      	ldrb	r3, [r4, #28]
 8002364:	b16b      	cbz	r3, 8002382 <Timer_Init+0x9ae>
 8002366:	8c23      	ldrh	r3, [r4, #32]
 8002368:	2bc8      	cmp	r3, #200	@ 0xc8
 800236a:	d10a      	bne.n	8002382 <Timer_Init+0x9ae>
 800236c:	2303      	movs	r3, #3
 800236e:	2204      	movs	r2, #4
 8002370:	e9cd 2301 	strd	r2, r3, [sp, #4]
 8002374:	9300      	str	r3, [sp, #0]
 8002376:	2302      	movs	r3, #2
 8002378:	4849      	ldr	r0, [pc, #292]	@ (80024a0 <Timer_Init+0xacc>)
 800237a:	461a      	mov	r2, r3
 800237c:	2108      	movs	r1, #8
 800237e:	f7fe ffe7 	bl	8001350 <GPIO_Pin_Init>
 8002382:	f894 3022 	ldrb.w	r3, [r4, #34]	@ 0x22
 8002386:	b16b      	cbz	r3, 80023a4 <Timer_Init+0x9d0>
 8002388:	8ce3      	ldrh	r3, [r4, #38]	@ 0x26
 800238a:	2bc9      	cmp	r3, #201	@ 0xc9
 800238c:	d10a      	bne.n	80023a4 <Timer_Init+0x9d0>
 800238e:	2303      	movs	r3, #3
 8002390:	2204      	movs	r2, #4
 8002392:	e9cd 2301 	strd	r2, r3, [sp, #4]
 8002396:	9300      	str	r3, [sp, #0]
 8002398:	2302      	movs	r3, #2
 800239a:	4841      	ldr	r0, [pc, #260]	@ (80024a0 <Timer_Init+0xacc>)
 800239c:	461a      	mov	r2, r3
 800239e:	2109      	movs	r1, #9
 80023a0:	f7fe ffd6 	bl	8001350 <GPIO_Pin_Init>
 80023a4:	f894 3029 	ldrb.w	r3, [r4, #41]	@ 0x29
 80023a8:	2b80      	cmp	r3, #128	@ 0x80
 80023aa:	d102      	bne.n	80023b2 <Timer_Init+0x9de>
 80023ac:	202b      	movs	r0, #43	@ 0x2b
 80023ae:	f7ff bb6d 	b.w	8001a8c <Timer_Init+0xb8>
 80023b2:	2b01      	cmp	r3, #1
 80023b4:	f000 8112 	beq.w	80025dc <Timer_Init+0xc08>
 80023b8:	3b02      	subs	r3, #2
 80023ba:	b2db      	uxtb	r3, r3
 80023bc:	2b1e      	cmp	r3, #30
 80023be:	f63f ac6b 	bhi.w	8001c98 <Timer_Init+0x2c4>
 80023c2:	2201      	movs	r2, #1
 80023c4:	409a      	lsls	r2, r3
 80023c6:	f244 0145 	movw	r1, #16453	@ 0x4045
 80023ca:	420a      	tst	r2, r1
 80023cc:	d105      	bne.n	80023da <Timer_Init+0xa06>
 80023ce:	2b1e      	cmp	r3, #30
 80023d0:	f47f ac62 	bne.w	8001c98 <Timer_Init+0x2c4>
 80023d4:	202d      	movs	r0, #45	@ 0x2d
 80023d6:	f7ff bb59 	b.w	8001a8c <Timer_Init+0xb8>
 80023da:	202e      	movs	r0, #46	@ 0x2e
 80023dc:	f7ff bb56 	b.w	8001a8c <Timer_Init+0xb8>
 80023e0:	4930      	ldr	r1, [pc, #192]	@ (80024a4 <Timer_Init+0xad0>)
 80023e2:	428b      	cmp	r3, r1
 80023e4:	d164      	bne.n	80024b0 <Timer_Init+0xadc>
 80023e6:	f501 4178 	add.w	r1, r1, #63488	@ 0xf800
 80023ea:	6c4b      	ldr	r3, [r1, #68]	@ 0x44
 80023ec:	f443 3380 	orr.w	r3, r3, #65536	@ 0x10000
 80023f0:	644b      	str	r3, [r1, #68]	@ 0x44
 80023f2:	4b2d      	ldr	r3, [pc, #180]	@ (80024a8 <Timer_Init+0xad4>)
 80023f4:	6018      	str	r0, [r3, #0]
 80023f6:	b1da      	cbz	r2, 8002430 <Timer_Init+0xa5c>
 80023f8:	8a83      	ldrh	r3, [r0, #20]
 80023fa:	2ba2      	cmp	r3, #162	@ 0xa2
 80023fc:	d10a      	bne.n	8002414 <Timer_Init+0xa40>
 80023fe:	2303      	movs	r3, #3
 8002400:	2204      	movs	r2, #4
 8002402:	e9cd 2301 	strd	r2, r3, [sp, #4]
 8002406:	9300      	str	r3, [sp, #0]
 8002408:	2302      	movs	r3, #2
 800240a:	481d      	ldr	r0, [pc, #116]	@ (8002480 <Timer_Init+0xaac>)
 800240c:	461a      	mov	r2, r3
 800240e:	4619      	mov	r1, r3
 8002410:	f7fe ff9e 	bl	8001350 <GPIO_Pin_Init>
 8002414:	8aa3      	ldrh	r3, [r4, #20]
 8002416:	2be5      	cmp	r3, #229	@ 0xe5
 8002418:	d10a      	bne.n	8002430 <Timer_Init+0xa5c>
 800241a:	2303      	movs	r3, #3
 800241c:	2204      	movs	r2, #4
 800241e:	e9cd 2301 	strd	r2, r3, [sp, #4]
 8002422:	9300      	str	r3, [sp, #0]
 8002424:	2302      	movs	r3, #2
 8002426:	4821      	ldr	r0, [pc, #132]	@ (80024ac <Timer_Init+0xad8>)
 8002428:	461a      	mov	r2, r3
 800242a:	2105      	movs	r1, #5
 800242c:	f7fe ff90 	bl	8001350 <GPIO_Pin_Init>
 8002430:	7da3      	ldrb	r3, [r4, #22]
 8002432:	b1d3      	cbz	r3, 800246a <Timer_Init+0xa96>
 8002434:	8b63      	ldrh	r3, [r4, #26]
 8002436:	2ba3      	cmp	r3, #163	@ 0xa3
 8002438:	d109      	bne.n	800244e <Timer_Init+0xa7a>
 800243a:	2304      	movs	r3, #4
 800243c:	2103      	movs	r1, #3
 800243e:	e9cd 3101 	strd	r3, r1, [sp, #4]
 8002442:	2302      	movs	r3, #2
 8002444:	480e      	ldr	r0, [pc, #56]	@ (8002480 <Timer_Init+0xaac>)
 8002446:	9100      	str	r1, [sp, #0]
 8002448:	461a      	mov	r2, r3
 800244a:	f7fe ff81 	bl	8001350 <GPIO_Pin_Init>
 800244e:	8aa3      	ldrh	r3, [r4, #20]
 8002450:	2be5      	cmp	r3, #229	@ 0xe5
 8002452:	d10a      	bne.n	800246a <Timer_Init+0xa96>
 8002454:	2303      	movs	r3, #3
 8002456:	2204      	movs	r2, #4
 8002458:	e9cd 2301 	strd	r2, r3, [sp, #4]
 800245c:	9300      	str	r3, [sp, #0]
 800245e:	2302      	movs	r3, #2
 8002460:	4812      	ldr	r0, [pc, #72]	@ (80024ac <Timer_Init+0xad8>)
 8002462:	461a      	mov	r2, r3
 8002464:	2105      	movs	r1, #5
 8002466:	f7fe ff73 	bl	8001350 <GPIO_Pin_Init>
 800246a:	f894 3029 	ldrb.w	r3, [r4, #41]	@ 0x29
 800246e:	3b01      	subs	r3, #1
 8002470:	2b01      	cmp	r3, #1
 8002472:	f63f ac11 	bhi.w	8001c98 <Timer_Init+0x2c4>
 8002476:	f7ff bb08 	b.w	8001a8a <Timer_Init+0xb6>
 800247a:	bf00      	nop
 800247c:	40000c00 	.word	0x40000c00
 8002480:	40020000 	.word	0x40020000
 8002484:	40020400 	.word	0x40020400
 8002488:	00010112 	.word	0x00010112
 800248c:	40001000 	.word	0x40001000
 8002490:	200000d8 	.word	0x200000d8
 8002494:	40001400 	.word	0x40001400
 8002498:	200000d4 	.word	0x200000d4
 800249c:	40010400 	.word	0x40010400
 80024a0:	40020800 	.word	0x40020800
 80024a4:	40014000 	.word	0x40014000
 80024a8:	200000cc 	.word	0x200000cc
 80024ac:	40021000 	.word	0x40021000
 80024b0:	4988      	ldr	r1, [pc, #544]	@ (80026d4 <Timer_Init+0xd00>)
 80024b2:	428b      	cmp	r3, r1
 80024b4:	d11d      	bne.n	80024f2 <Timer_Init+0xb1e>
 80024b6:	f501 4174 	add.w	r1, r1, #62464	@ 0xf400
 80024ba:	6c4b      	ldr	r3, [r1, #68]	@ 0x44
 80024bc:	f443 3300 	orr.w	r3, r3, #131072	@ 0x20000
 80024c0:	644b      	str	r3, [r1, #68]	@ 0x44
 80024c2:	b16a      	cbz	r2, 80024e0 <Timer_Init+0xb0c>
 80024c4:	8a83      	ldrh	r3, [r0, #20]
 80024c6:	2bb8      	cmp	r3, #184	@ 0xb8
 80024c8:	d10a      	bne.n	80024e0 <Timer_Init+0xb0c>
 80024ca:	2303      	movs	r3, #3
 80024cc:	2204      	movs	r2, #4
 80024ce:	e9cd 2301 	strd	r2, r3, [sp, #4]
 80024d2:	9300      	str	r3, [sp, #0]
 80024d4:	2302      	movs	r3, #2
 80024d6:	4880      	ldr	r0, [pc, #512]	@ (80026d8 <Timer_Init+0xd04>)
 80024d8:	461a      	mov	r2, r3
 80024da:	2108      	movs	r1, #8
 80024dc:	f7fe ff38 	bl	8001350 <GPIO_Pin_Init>
 80024e0:	f894 3029 	ldrb.w	r3, [r4, #41]	@ 0x29
 80024e4:	3b01      	subs	r3, #1
 80024e6:	2b01      	cmp	r3, #1
 80024e8:	f63f abd6 	bhi.w	8001c98 <Timer_Init+0x2c4>
 80024ec:	2019      	movs	r0, #25
 80024ee:	f7ff bacd 	b.w	8001a8c <Timer_Init+0xb8>
 80024f2:	497a      	ldr	r1, [pc, #488]	@ (80026dc <Timer_Init+0xd08>)
 80024f4:	428b      	cmp	r3, r1
 80024f6:	d11c      	bne.n	8002532 <Timer_Init+0xb5e>
 80024f8:	f501 4170 	add.w	r1, r1, #61440	@ 0xf000
 80024fc:	6c4b      	ldr	r3, [r1, #68]	@ 0x44
 80024fe:	f443 2380 	orr.w	r3, r3, #262144	@ 0x40000
 8002502:	644b      	str	r3, [r1, #68]	@ 0x44
 8002504:	b16a      	cbz	r2, 8002522 <Timer_Init+0xb4e>
 8002506:	8a83      	ldrh	r3, [r0, #20]
 8002508:	2bb9      	cmp	r3, #185	@ 0xb9
 800250a:	d10a      	bne.n	8002522 <Timer_Init+0xb4e>
 800250c:	2303      	movs	r3, #3
 800250e:	2204      	movs	r2, #4
 8002510:	e9cd 2301 	strd	r2, r3, [sp, #4]
 8002514:	9300      	str	r3, [sp, #0]
 8002516:	2302      	movs	r3, #2
 8002518:	486f      	ldr	r0, [pc, #444]	@ (80026d8 <Timer_Init+0xd04>)
 800251a:	461a      	mov	r2, r3
 800251c:	2109      	movs	r1, #9
 800251e:	f7fe ff17 	bl	8001350 <GPIO_Pin_Init>
 8002522:	f894 3029 	ldrb.w	r3, [r4, #41]	@ 0x29
 8002526:	3b01      	subs	r3, #1
 8002528:	2b01      	cmp	r3, #1
 800252a:	f63f abb5 	bhi.w	8001c98 <Timer_Init+0x2c4>
 800252e:	f7ff bafc 	b.w	8001b2a <Timer_Init+0x156>
 8002532:	496b      	ldr	r1, [pc, #428]	@ (80026e0 <Timer_Init+0xd0c>)
 8002534:	428b      	cmp	r3, r1
 8002536:	d131      	bne.n	800259c <Timer_Init+0xbc8>
 8002538:	f501 3108 	add.w	r1, r1, #139264	@ 0x22000
 800253c:	6c0b      	ldr	r3, [r1, #64]	@ 0x40
 800253e:	f043 0340 	orr.w	r3, r3, #64	@ 0x40
 8002542:	640b      	str	r3, [r1, #64]	@ 0x40
 8002544:	b182      	cbz	r2, 8002568 <Timer_Init+0xb94>
 8002546:	8a82      	ldrh	r2, [r0, #20]
 8002548:	f640 3314 	movw	r3, #2836	@ 0xb14
 800254c:	429a      	cmp	r2, r3
 800254e:	d10b      	bne.n	8002568 <Timer_Init+0xb94>
 8002550:	2304      	movs	r3, #4
 8002552:	2109      	movs	r1, #9
 8002554:	e9cd 3101 	strd	r3, r1, [sp, #4]
 8002558:	2303      	movs	r3, #3
 800255a:	9300      	str	r3, [sp, #0]
 800255c:	2302      	movs	r3, #2
 800255e:	485e      	ldr	r0, [pc, #376]	@ (80026d8 <Timer_Init+0xd04>)
 8002560:	461a      	mov	r2, r3
 8002562:	210e      	movs	r1, #14
 8002564:	f7fe fef4 	bl	8001350 <GPIO_Pin_Init>
 8002568:	7da3      	ldrb	r3, [r4, #22]
 800256a:	b183      	cbz	r3, 800258e <Timer_Init+0xbba>
 800256c:	8b62      	ldrh	r2, [r4, #26]
 800256e:	f640 3315 	movw	r3, #2837	@ 0xb15
 8002572:	429a      	cmp	r2, r3
 8002574:	d10b      	bne.n	800258e <Timer_Init+0xbba>
 8002576:	2304      	movs	r3, #4
 8002578:	2209      	movs	r2, #9
 800257a:	e9cd 3201 	strd	r3, r2, [sp, #4]
 800257e:	2303      	movs	r3, #3
 8002580:	9300      	str	r3, [sp, #0]
 8002582:	2302      	movs	r3, #2
 8002584:	4854      	ldr	r0, [pc, #336]	@ (80026d8 <Timer_Init+0xd04>)
 8002586:	461a      	mov	r2, r3
 8002588:	210f      	movs	r1, #15
 800258a:	f7fe fee1 	bl	8001350 <GPIO_Pin_Init>
 800258e:	f894 3029 	ldrb.w	r3, [r4, #41]	@ 0x29
 8002592:	3b01      	subs	r3, #1
 8002594:	2b01      	cmp	r3, #1
 8002596:	f63f ab7f 	bhi.w	8001c98 <Timer_Init+0x2c4>
 800259a:	e707      	b.n	80023ac <Timer_Init+0x9d8>
 800259c:	4951      	ldr	r1, [pc, #324]	@ (80026e4 <Timer_Init+0xd10>)
 800259e:	428b      	cmp	r3, r1
 80025a0:	d11f      	bne.n	80025e2 <Timer_Init+0xc0e>
 80025a2:	f501 3107 	add.w	r1, r1, #138240	@ 0x21c00
 80025a6:	6c0b      	ldr	r3, [r1, #64]	@ 0x40
 80025a8:	f043 0380 	orr.w	r3, r3, #128	@ 0x80
 80025ac:	640b      	str	r3, [r1, #64]	@ 0x40
 80025ae:	b17a      	cbz	r2, 80025d0 <Timer_Init+0xbfc>
 80025b0:	8a83      	ldrh	r3, [r0, #20]
 80025b2:	2ba6      	cmp	r3, #166	@ 0xa6
 80025b4:	d10c      	bne.n	80025d0 <Timer_Init+0xbfc>
 80025b6:	2304      	movs	r3, #4
 80025b8:	f04f 0e09 	mov.w	lr, #9
 80025bc:	e9cd 3e01 	strd	r3, lr, [sp, #4]
 80025c0:	2303      	movs	r3, #3
 80025c2:	9300      	str	r3, [sp, #0]
 80025c4:	2302      	movs	r3, #2
 80025c6:	4848      	ldr	r0, [pc, #288]	@ (80026e8 <Timer_Init+0xd14>)
 80025c8:	461a      	mov	r2, r3
 80025ca:	2106      	movs	r1, #6
 80025cc:	f7fe fec0 	bl	8001350 <GPIO_Pin_Init>
 80025d0:	f894 3029 	ldrb.w	r3, [r4, #41]	@ 0x29
 80025d4:	3b01      	subs	r3, #1
 80025d6:	2b01      	cmp	r3, #1
 80025d8:	f63f ab5e 	bhi.w	8001c98 <Timer_Init+0x2c4>
 80025dc:	202c      	movs	r0, #44	@ 0x2c
 80025de:	f7ff ba55 	b.w	8001a8c <Timer_Init+0xb8>
 80025e2:	4942      	ldr	r1, [pc, #264]	@ (80026ec <Timer_Init+0xd18>)
 80025e4:	428b      	cmp	r3, r1
 80025e6:	f47f ab57 	bne.w	8001c98 <Timer_Init+0x2c4>
 80025ea:	f501 3106 	add.w	r1, r1, #137216	@ 0x21800
 80025ee:	6c0b      	ldr	r3, [r1, #64]	@ 0x40
 80025f0:	f443 7380 	orr.w	r3, r3, #256	@ 0x100
 80025f4:	640b      	str	r3, [r1, #64]	@ 0x40
 80025f6:	2a00      	cmp	r2, #0
 80025f8:	f43f ab4e 	beq.w	8001c98 <Timer_Init+0x2c4>
 80025fc:	8a83      	ldrh	r3, [r0, #20]
 80025fe:	2ba7      	cmp	r3, #167	@ 0xa7
 8002600:	f47f ab4a 	bne.w	8001c98 <Timer_Init+0x2c4>
 8002604:	2304      	movs	r3, #4
 8002606:	f04f 0c09 	mov.w	ip, #9
 800260a:	e9cd 3c01 	strd	r3, ip, [sp, #4]
 800260e:	2303      	movs	r3, #3
 8002610:	9300      	str	r3, [sp, #0]
 8002612:	2302      	movs	r3, #2
 8002614:	461a      	mov	r2, r3
 8002616:	2107      	movs	r1, #7
 8002618:	4833      	ldr	r0, [pc, #204]	@ (80026e8 <Timer_Init+0xd14>)
 800261a:	f7fe fe99 	bl	8001350 <GPIO_Pin_Init>
 800261e:	f7ff bb3b 	b.w	8001c98 <Timer_Init+0x2c4>
 8002622:	f5b0 7f80 	cmp.w	r0, #256	@ 0x100
 8002626:	f47f abf4 	bne.w	8001e12 <Timer_Init+0x43e>
 800262a:	f7ff bbe2 	b.w	8001df2 <Timer_Init+0x41e>
 800262e:	f5b2 7f80 	cmp.w	r2, #256	@ 0x100
 8002632:	f47f ac19 	bne.w	8001e68 <Timer_Init+0x494>
 8002636:	e407      	b.n	8001e48 <Timer_Init+0x474>
 8002638:	f5b1 7f80 	cmp.w	r1, #256	@ 0x100
 800263c:	f47f ac3f 	bne.w	8001ebe <Timer_Init+0x4ea>
 8002640:	e42d      	b.n	8001e9e <Timer_Init+0x4ca>
 8002642:	2a02      	cmp	r2, #2
 8002644:	d126      	bne.n	8002694 <Timer_Init+0xcc0>
 8002646:	2200      	movs	r2, #0
 8002648:	f04f 31ff 	mov.w	r1, #4294967295
 800264c:	629a      	str	r2, [r3, #40]	@ 0x28
 800264e:	62d9      	str	r1, [r3, #44]	@ 0x2c
 8002650:	625a      	str	r2, [r3, #36]	@ 0x24
 8002652:	699a      	ldr	r2, [r3, #24]
 8002654:	f042 0201 	orr.w	r2, r2, #1
 8002658:	619a      	str	r2, [r3, #24]
 800265a:	6a1a      	ldr	r2, [r3, #32]
 800265c:	f022 020a 	bic.w	r2, r2, #10
 8002660:	621a      	str	r2, [r3, #32]
 8002662:	699a      	ldr	r2, [r3, #24]
 8002664:	f442 7200 	orr.w	r2, r2, #512	@ 0x200
 8002668:	619a      	str	r2, [r3, #24]
 800266a:	6a1a      	ldr	r2, [r3, #32]
 800266c:	f042 0220 	orr.w	r2, r2, #32
 8002670:	621a      	str	r2, [r3, #32]
 8002672:	6a1a      	ldr	r2, [r3, #32]
 8002674:	f022 0280 	bic.w	r2, r2, #128	@ 0x80
 8002678:	621a      	str	r2, [r3, #32]
 800267a:	689a      	ldr	r2, [r3, #8]
 800267c:	f042 0250 	orr.w	r2, r2, #80	@ 0x50
 8002680:	609a      	str	r2, [r3, #8]
 8002682:	689a      	ldr	r2, [r3, #8]
 8002684:	f042 0204 	orr.w	r2, r2, #4
 8002688:	609a      	str	r2, [r3, #8]
 800268a:	6a1a      	ldr	r2, [r3, #32]
 800268c:	f042 0211 	orr.w	r2, r2, #17
 8002690:	621a      	str	r2, [r3, #32]
 8002692:	e464      	b.n	8001f5e <Timer_Init+0x58a>
 8002694:	2a08      	cmp	r2, #8
 8002696:	f47f ac62 	bne.w	8001f5e <Timer_Init+0x58a>
 800269a:	685a      	ldr	r2, [r3, #4]
 800269c:	f042 0280 	orr.w	r2, r2, #128	@ 0x80
 80026a0:	605a      	str	r2, [r3, #4]
 80026a2:	689a      	ldr	r2, [r3, #8]
 80026a4:	f022 0270 	bic.w	r2, r2, #112	@ 0x70
 80026a8:	609a      	str	r2, [r3, #8]
 80026aa:	689a      	ldr	r2, [r3, #8]
 80026ac:	f042 0270 	orr.w	r2, r2, #112	@ 0x70
 80026b0:	609a      	str	r2, [r3, #8]
 80026b2:	689a      	ldr	r2, [r3, #8]
 80026b4:	f022 0207 	bic.w	r2, r2, #7
 80026b8:	609a      	str	r2, [r3, #8]
 80026ba:	689a      	ldr	r2, [r3, #8]
 80026bc:	f042 0204 	orr.w	r2, r2, #4
 80026c0:	609a      	str	r2, [r3, #8]
 80026c2:	e44c      	b.n	8001f5e <Timer_Init+0x58a>
 80026c4:	2980      	cmp	r1, #128	@ 0x80
 80026c6:	e7b9      	b.n	800263c <Timer_Init+0xc68>
 80026c8:	2a80      	cmp	r2, #128	@ 0x80
 80026ca:	e7b2      	b.n	8002632 <Timer_Init+0xc5e>
 80026cc:	2880      	cmp	r0, #128	@ 0x80
 80026ce:	e7aa      	b.n	8002626 <Timer_Init+0xc52>
 80026d0:	b005      	add	sp, #20
 80026d2:	bdf0      	pop	{r4, r5, r6, r7, pc}
 80026d4:	40014400 	.word	0x40014400
 80026d8:	40020400 	.word	0x40020400
 80026dc:	40014800 	.word	0x40014800
 80026e0:	40001800 	.word	0x40001800
 80026e4:	40001c00 	.word	0x40001c00
 80026e8:	40020000 	.word	0x40020000
 80026ec:	40002000 	.word	0x40002000

080026f0 <Select_DIG1>:
 80026f0:	4b05      	ldr	r3, [pc, #20]	@ (8002708 <Select_DIG1+0x18>)
 80026f2:	4a06      	ldr	r2, [pc, #24]	@ (800270c <Select_DIG1+0x1c>)
 80026f4:	6819      	ldr	r1, [r3, #0]
 80026f6:	7810      	ldrb	r0, [r2, #0]
 80026f8:	694b      	ldr	r3, [r1, #20]
 80026fa:	2201      	movs	r2, #1
 80026fc:	4082      	lsls	r2, r0
 80026fe:	ea23 0302 	bic.w	r3, r3, r2
 8002702:	614b      	str	r3, [r1, #20]
 8002704:	4770      	bx	lr
 8002706:	bf00      	nop
 8002708:	2000000c 	.word	0x2000000c
 800270c:	20000001 	.word	0x20000001

08002710 <Select_DIG2>:
 8002710:	4b05      	ldr	r3, [pc, #20]	@ (8002728 <Select_DIG2+0x18>)
 8002712:	4a06      	ldr	r2, [pc, #24]	@ (800272c <Select_DIG2+0x1c>)
 8002714:	6819      	ldr	r1, [r3, #0]
 8002716:	7810      	ldrb	r0, [r2, #0]
 8002718:	694b      	ldr	r3, [r1, #20]
 800271a:	2201      	movs	r2, #1
 800271c:	4082      	lsls	r2, r0
 800271e:	ea23 0302 	bic.w	r3, r3, r2
 8002722:	614b      	str	r3, [r1, #20]
 8002724:	4770      	bx	lr
 8002726:	bf00      	nop
 8002728:	2000000c 	.word	0x2000000c
 800272c:	20000000 	.word	0x20000000

08002730 <Diselect_DIG1>:
 8002730:	4b04      	ldr	r3, [pc, #16]	@ (8002744 <Diselect_DIG1+0x14>)
 8002732:	681a      	ldr	r2, [r3, #0]
 8002734:	4b04      	ldr	r3, [pc, #16]	@ (8002748 <Diselect_DIG1+0x18>)
 8002736:	6951      	ldr	r1, [r2, #20]
 8002738:	7818      	ldrb	r0, [r3, #0]
 800273a:	2301      	movs	r3, #1
 800273c:	4083      	lsls	r3, r0
 800273e:	430b      	orrs	r3, r1
 8002740:	6153      	str	r3, [r2, #20]
 8002742:	4770      	bx	lr
 8002744:	2000000c 	.word	0x2000000c
 8002748:	20000001 	.word	0x20000001

0800274c <Diselect_DIG2>:
 800274c:	4b04      	ldr	r3, [pc, #16]	@ (8002760 <Diselect_DIG2+0x14>)
 800274e:	681a      	ldr	r2, [r3, #0]
 8002750:	4b04      	ldr	r3, [pc, #16]	@ (8002764 <Diselect_DIG2+0x18>)
 8002752:	6951      	ldr	r1, [r2, #20]
 8002754:	7818      	ldrb	r0, [r3, #0]
 8002756:	2301      	movs	r3, #1
 8002758:	4083      	lsls	r3, r0
 800275a:	430b      	orrs	r3, r1
 800275c:	6153      	str	r3, [r2, #20]
 800275e:	4770      	bx	lr
 8002760:	2000000c 	.word	0x2000000c
 8002764:	20000000 	.word	0x20000000

08002768 <Seg7_Update>:
 8002768:	b5f8      	push	{r3, r4, r5, r6, r7, lr}
 800276a:	4c0c      	ldr	r4, [pc, #48]	@ (800279c <Seg7_Update+0x34>)
 800276c:	4a0c      	ldr	r2, [pc, #48]	@ (80027a0 <Seg7_Update+0x38>)
 800276e:	7823      	ldrb	r3, [r4, #0]
 8002770:	6815      	ldr	r5, [r2, #0]
 8002772:	4f0c      	ldr	r7, [pc, #48]	@ (80027a4 <Seg7_Update+0x3c>)
 8002774:	4e0c      	ldr	r6, [pc, #48]	@ (80027a8 <Seg7_Update+0x40>)
 8002776:	b15b      	cbz	r3, 8002790 <Seg7_Update+0x28>
 8002778:	f7ff ffe8 	bl	800274c <Diselect_DIG2>
 800277c:	f7ff ffb8 	bl	80026f0 <Select_DIG1>
 8002780:	783b      	ldrb	r3, [r7, #0]
 8002782:	5cf3      	ldrb	r3, [r6, r3]
 8002784:	616b      	str	r3, [r5, #20]
 8002786:	7823      	ldrb	r3, [r4, #0]
 8002788:	f083 0301 	eor.w	r3, r3, #1
 800278c:	7023      	strb	r3, [r4, #0]
 800278e:	bdf8      	pop	{r3, r4, r5, r6, r7, pc}
 8002790:	f7ff ffce 	bl	8002730 <Diselect_DIG1>
 8002794:	f7ff ffbc 	bl	8002710 <Select_DIG2>
 8002798:	787b      	ldrb	r3, [r7, #1]
 800279a:	e7f2      	b.n	8002782 <Seg7_Update+0x1a>
 800279c:	200000f0 	.word	0x200000f0
 80027a0:	20000008 	.word	0x20000008
 80027a4:	200001a0 	.word	0x200001a0
 80027a8:	08002b48 	.word	0x08002b48

080027ac <Seg7_Init>:
 80027ac:	e92d 43f0 	stmdb	sp!, {r4, r5, r6, r7, r8, r9, lr}
 80027b0:	2401      	movs	r4, #1
 80027b2:	b085      	sub	sp, #20
 80027b4:	2500      	movs	r5, #0
 80027b6:	e9cd 4501 	strd	r4, r5, [sp, #4]
 80027ba:	2603      	movs	r6, #3
 80027bc:	460f      	mov	r7, r1
 80027be:	493a      	ldr	r1, [pc, #232]	@ (80028a8 <Seg7_Init+0xfc>)
 80027c0:	9600      	str	r6, [sp, #0]
 80027c2:	4690      	mov	r8, r2
 80027c4:	4681      	mov	r9, r0
 80027c6:	462b      	mov	r3, r5
 80027c8:	4622      	mov	r2, r4
 80027ca:	7809      	ldrb	r1, [r1, #0]
 80027cc:	4638      	mov	r0, r7
 80027ce:	f7fe fdbf 	bl	8001350 <GPIO_Pin_Init>
 80027d2:	e9cd 4501 	strd	r4, r5, [sp, #4]
 80027d6:	4935      	ldr	r1, [pc, #212]	@ (80028ac <Seg7_Init+0x100>)
 80027d8:	9600      	str	r6, [sp, #0]
 80027da:	462b      	mov	r3, r5
 80027dc:	4622      	mov	r2, r4
 80027de:	7809      	ldrb	r1, [r1, #0]
 80027e0:	4638      	mov	r0, r7
 80027e2:	f7fe fdb5 	bl	8001350 <GPIO_Pin_Init>
 80027e6:	e9cd 4501 	strd	r4, r5, [sp, #4]
 80027ea:	4931      	ldr	r1, [pc, #196]	@ (80028b0 <Seg7_Init+0x104>)
 80027ec:	9600      	str	r6, [sp, #0]
 80027ee:	462b      	mov	r3, r5
 80027f0:	4622      	mov	r2, r4
 80027f2:	7809      	ldrb	r1, [r1, #0]
 80027f4:	4638      	mov	r0, r7
 80027f6:	f7fe fdab 	bl	8001350 <GPIO_Pin_Init>
 80027fa:	e9cd 4501 	strd	r4, r5, [sp, #4]
 80027fe:	492d      	ldr	r1, [pc, #180]	@ (80028b4 <Seg7_Init+0x108>)
 8002800:	9600      	str	r6, [sp, #0]
 8002802:	462b      	mov	r3, r5
 8002804:	4622      	mov	r2, r4
 8002806:	7809      	ldrb	r1, [r1, #0]
 8002808:	4638      	mov	r0, r7
 800280a:	f7fe fda1 	bl	8001350 <GPIO_Pin_Init>
 800280e:	e9cd 4501 	strd	r4, r5, [sp, #4]
 8002812:	4929      	ldr	r1, [pc, #164]	@ (80028b8 <Seg7_Init+0x10c>)
 8002814:	9600      	str	r6, [sp, #0]
 8002816:	462b      	mov	r3, r5
 8002818:	4622      	mov	r2, r4
 800281a:	7809      	ldrb	r1, [r1, #0]
 800281c:	4638      	mov	r0, r7
 800281e:	f7fe fd97 	bl	8001350 <GPIO_Pin_Init>
 8002822:	e9cd 4501 	strd	r4, r5, [sp, #4]
 8002826:	4925      	ldr	r1, [pc, #148]	@ (80028bc <Seg7_Init+0x110>)
 8002828:	9600      	str	r6, [sp, #0]
 800282a:	462b      	mov	r3, r5
 800282c:	4622      	mov	r2, r4
 800282e:	7809      	ldrb	r1, [r1, #0]
 8002830:	4638      	mov	r0, r7
 8002832:	f7fe fd8d 	bl	8001350 <GPIO_Pin_Init>
 8002836:	e9cd 4501 	strd	r4, r5, [sp, #4]
 800283a:	4921      	ldr	r1, [pc, #132]	@ (80028c0 <Seg7_Init+0x114>)
 800283c:	9600      	str	r6, [sp, #0]
 800283e:	462b      	mov	r3, r5
 8002840:	4622      	mov	r2, r4
 8002842:	7809      	ldrb	r1, [r1, #0]
 8002844:	4638      	mov	r0, r7
 8002846:	2704      	movs	r7, #4
 8002848:	f7fe fd82 	bl	8001350 <GPIO_Pin_Init>
 800284c:	e9cd 6700 	strd	r6, r7, [sp]
 8002850:	491c      	ldr	r1, [pc, #112]	@ (80028c4 <Seg7_Init+0x118>)
 8002852:	9502      	str	r5, [sp, #8]
 8002854:	4623      	mov	r3, r4
 8002856:	4622      	mov	r2, r4
 8002858:	7809      	ldrb	r1, [r1, #0]
 800285a:	4640      	mov	r0, r8
 800285c:	f7fe fd78 	bl	8001350 <GPIO_Pin_Init>
 8002860:	e9cd 7501 	strd	r7, r5, [sp, #4]
 8002864:	4918      	ldr	r1, [pc, #96]	@ (80028c8 <Seg7_Init+0x11c>)
 8002866:	9600      	str	r6, [sp, #0]
 8002868:	4622      	mov	r2, r4
 800286a:	4e18      	ldr	r6, [pc, #96]	@ (80028cc <Seg7_Init+0x120>)
 800286c:	7809      	ldrb	r1, [r1, #0]
 800286e:	4623      	mov	r3, r4
 8002870:	4640      	mov	r0, r8
 8002872:	f7fe fd6d 	bl	8001350 <GPIO_Pin_Init>
 8002876:	2320      	movs	r3, #32
 8002878:	80b3      	strh	r3, [r6, #4]
 800287a:	4b15      	ldr	r3, [pc, #84]	@ (80028d0 <Seg7_Init+0x124>)
 800287c:	f8c6 308c 	str.w	r3, [r6, #140]	@ 0x8c
 8002880:	4630      	mov	r0, r6
 8002882:	4b14      	ldr	r3, [pc, #80]	@ (80028d4 <Seg7_Init+0x128>)
 8002884:	60f3      	str	r3, [r6, #12]
 8002886:	f8c6 9000 	str.w	r9, [r6]
 800288a:	f886 502c 	strb.w	r5, [r6, #44]	@ 0x2c
 800288e:	71b5      	strb	r5, [r6, #6]
 8002890:	f886 4029 	strb.w	r4, [r6, #41]	@ 0x29
 8002894:	f7ff f89e 	bl	80019d4 <Timer_Init>
 8002898:	6832      	ldr	r2, [r6, #0]
 800289a:	6813      	ldr	r3, [r2, #0]
 800289c:	4323      	orrs	r3, r4
 800289e:	6013      	str	r3, [r2, #0]
 80028a0:	b005      	add	sp, #20
 80028a2:	e8bd 83f0 	ldmia.w	sp!, {r4, r5, r6, r7, r8, r9, pc}
 80028a6:	bf00      	nop
 80028a8:	200000f1 	.word	0x200000f1
 80028ac:	20000007 	.word	0x20000007
 80028b0:	20000006 	.word	0x20000006
 80028b4:	20000005 	.word	0x20000005
 80028b8:	20000004 	.word	0x20000004
 80028bc:	20000003 	.word	0x20000003
 80028c0:	20000002 	.word	0x20000002
 80028c4:	20000001 	.word	0x20000001
 80028c8:	20000000 	.word	0x20000000
 80028cc:	200000f4 	.word	0x200000f4
 80028d0:	08002769 	.word	0x08002769
 80028d4:	006320cf 	.word	0x006320cf

080028d8 <main>:
 80028d8:	b5f8      	push	{r3, r4, r5, r6, r7, lr}
 80028da:	f000 f89b 	bl	8002a14 <SystemInit>
 80028de:	4b43      	ldr	r3, [pc, #268]	@ (80029ec <main+0x114>)
 80028e0:	2200      	movs	r2, #0
 80028e2:	605a      	str	r2, [r3, #4]
 80028e4:	681a      	ldr	r2, [r3, #0]
 80028e6:	f442 3280 	orr.w	r2, r2, #65536	@ 0x10000
 80028ea:	601a      	str	r2, [r3, #0]
 80028ec:	681a      	ldr	r2, [r3, #0]
 80028ee:	0395      	lsls	r5, r2, #14
 80028f0:	d5fc      	bpl.n	80028ec <main+0x14>
 80028f2:	6c1a      	ldr	r2, [r3, #64]	@ 0x40
 80028f4:	493e      	ldr	r1, [pc, #248]	@ (80029f0 <main+0x118>)
 80028f6:	f042 5280 	orr.w	r2, r2, #268435456	@ 0x10000000
 80028fa:	641a      	str	r2, [r3, #64]	@ 0x40
 80028fc:	680a      	ldr	r2, [r1, #0]
 80028fe:	f442 4280 	orr.w	r2, r2, #16384	@ 0x4000
 8002902:	600a      	str	r2, [r1, #0]
 8002904:	f501 31e6 	add.w	r1, r1, #117760	@ 0x1cc00
 8002908:	680a      	ldr	r2, [r1, #0]
 800290a:	f442 62e0 	orr.w	r2, r2, #1792	@ 0x700
 800290e:	f042 0205 	orr.w	r2, r2, #5
 8002912:	600a      	str	r2, [r1, #0]
 8002914:	6859      	ldr	r1, [r3, #4]
 8002916:	4a37      	ldr	r2, [pc, #220]	@ (80029f4 <main+0x11c>)
 8002918:	430a      	orrs	r2, r1
 800291a:	605a      	str	r2, [r3, #4]
 800291c:	685a      	ldr	r2, [r3, #4]
 800291e:	f442 0280 	orr.w	r2, r2, #4194304	@ 0x400000
 8002922:	605a      	str	r2, [r3, #4]
 8002924:	689a      	ldr	r2, [r3, #8]
 8002926:	609a      	str	r2, [r3, #8]
 8002928:	689a      	ldr	r2, [r3, #8]
 800292a:	f442 52a0 	orr.w	r2, r2, #5120	@ 0x1400
 800292e:	609a      	str	r2, [r3, #8]
 8002930:	689a      	ldr	r2, [r3, #8]
 8002932:	f442 4200 	orr.w	r2, r2, #32768	@ 0x8000
 8002936:	609a      	str	r2, [r3, #8]
 8002938:	681a      	ldr	r2, [r3, #0]
 800293a:	f042 7280 	orr.w	r2, r2, #16777216	@ 0x1000000
 800293e:	601a      	str	r2, [r3, #0]
 8002940:	4b2a      	ldr	r3, [pc, #168]	@ (80029ec <main+0x114>)
 8002942:	681a      	ldr	r2, [r3, #0]
 8002944:	0194      	lsls	r4, r2, #6
 8002946:	d5fc      	bpl.n	8002942 <main+0x6a>
 8002948:	689a      	ldr	r2, [r3, #8]
 800294a:	f042 0202 	orr.w	r2, r2, #2
 800294e:	609a      	str	r2, [r3, #8]
 8002950:	689a      	ldr	r2, [r3, #8]
 8002952:	0710      	lsls	r0, r2, #28
 8002954:	d5fc      	bpl.n	8002950 <main+0x78>
 8002956:	f000 f867 	bl	8002a28 <SystemCoreClockUpdate>
 800295a:	4b27      	ldr	r3, [pc, #156]	@ (80029f8 <main+0x120>)
 800295c:	22a8      	movs	r2, #168	@ 0xa8
 800295e:	681b      	ldr	r3, [r3, #0]
 8002960:	fbb3 f3f2 	udiv	r3, r3, r2
 8002964:	3b01      	subs	r3, #1
 8002966:	f1b3 7f80 	cmp.w	r3, #16777216	@ 0x1000000
 800296a:	d20a      	bcs.n	8002982 <main+0xaa>
 800296c:	f04f 22e0 	mov.w	r2, #3758153728	@ 0xe000e000
 8002970:	21f0      	movs	r1, #240	@ 0xf0
 8002972:	6153      	str	r3, [r2, #20]
 8002974:	4b21      	ldr	r3, [pc, #132]	@ (80029fc <main+0x124>)
 8002976:	f883 1023 	strb.w	r1, [r3, #35]	@ 0x23
 800297a:	2300      	movs	r3, #0
 800297c:	6193      	str	r3, [r2, #24]
 800297e:	2307      	movs	r3, #7
 8002980:	6113      	str	r3, [r2, #16]
 8002982:	4a1a      	ldr	r2, [pc, #104]	@ (80029ec <main+0x114>)
 8002984:	481e      	ldr	r0, [pc, #120]	@ (8002a00 <main+0x128>)
 8002986:	6c53      	ldr	r3, [r2, #68]	@ 0x44
 8002988:	4e1e      	ldr	r6, [pc, #120]	@ (8002a04 <main+0x12c>)
 800298a:	4f1f      	ldr	r7, [pc, #124]	@ (8002a08 <main+0x130>)
 800298c:	f04f 24e0 	mov.w	r4, #3758153728	@ 0xe000e000
 8002990:	f443 4380 	orr.w	r3, r3, #16384	@ 0x4000
 8002994:	6453      	str	r3, [r2, #68]	@ 0x44
 8002996:	2500      	movs	r5, #0
 8002998:	f06f 437f 	mvn.w	r3, #4278190080	@ 0xff000000
 800299c:	6125      	str	r5, [r4, #16]
 800299e:	6163      	str	r3, [r4, #20]
 80029a0:	2305      	movs	r3, #5
 80029a2:	61a5      	str	r5, [r4, #24]
 80029a4:	6123      	str	r3, [r4, #16]
 80029a6:	4b19      	ldr	r3, [pc, #100]	@ (8002a0c <main+0x134>)
 80029a8:	681a      	ldr	r2, [r3, #0]
 80029aa:	4b19      	ldr	r3, [pc, #100]	@ (8002a10 <main+0x138>)
 80029ac:	6819      	ldr	r1, [r3, #0]
 80029ae:	f7ff fefd 	bl	80027ac <Seg7_Init>
 80029b2:	200a      	movs	r0, #10
 80029b4:	2200      	movs	r2, #0
 80029b6:	fbb2 f3f0 	udiv	r3, r2, r0
 80029ba:	b2d9      	uxtb	r1, r3
 80029bc:	fb00 2313 	mls	r3, r0, r3, r2
 80029c0:	b2db      	uxtb	r3, r3
 80029c2:	7031      	strb	r1, [r6, #0]
 80029c4:	7073      	strb	r3, [r6, #1]
 80029c6:	f240 13f5 	movw	r3, #501	@ 0x1f5
 80029ca:	3b01      	subs	r3, #1
 80029cc:	d103      	bne.n	80029d6 <main+0xfe>
 80029ce:	3201      	adds	r2, #1
 80029d0:	2a64      	cmp	r2, #100	@ 0x64
 80029d2:	d1f0      	bne.n	80029b6 <main+0xde>
 80029d4:	e7ee      	b.n	80029b4 <main+0xdc>
 80029d6:	6167      	str	r7, [r4, #20]
 80029d8:	61a5      	str	r5, [r4, #24]
 80029da:	6921      	ldr	r1, [r4, #16]
 80029dc:	f041 0101 	orr.w	r1, r1, #1
 80029e0:	6121      	str	r1, [r4, #16]
 80029e2:	6921      	ldr	r1, [r4, #16]
 80029e4:	03c9      	lsls	r1, r1, #15
 80029e6:	d5fc      	bpl.n	80029e2 <main+0x10a>
 80029e8:	e7ef      	b.n	80029ca <main+0xf2>
 80029ea:	bf00      	nop
 80029ec:	40023800 	.word	0x40023800
 80029f0:	40007000 	.word	0x40007000
 80029f4:	07005408 	.word	0x07005408
 80029f8:	20000010 	.word	0x20000010
 80029fc:	e000ed00 	.word	0xe000ed00
 8002a00:	40001000 	.word	0x40001000
 8002a04:	200001a0 	.word	0x200001a0
 8002a08:	00029040 	.word	0x00029040
 8002a0c:	2000000c 	.word	0x2000000c
 8002a10:	20000008 	.word	0x20000008

08002a14 <SystemInit>:
 8002a14:	4a03      	ldr	r2, [pc, #12]	@ (8002a24 <SystemInit+0x10>)
 8002a16:	f8d2 3088 	ldr.w	r3, [r2, #136]	@ 0x88
 8002a1a:	f443 0370 	orr.w	r3, r3, #15728640	@ 0xf00000
 8002a1e:	f8c2 3088 	str.w	r3, [r2, #136]	@ 0x88
 8002a22:	4770      	bx	lr
 8002a24:	e000ed00 	.word	0xe000ed00

08002a28 <SystemCoreClockUpdate>:
 8002a28:	4b15      	ldr	r3, [pc, #84]	@ (8002a80 <SystemCoreClockUpdate+0x58>)
 8002a2a:	689a      	ldr	r2, [r3, #8]
 8002a2c:	f002 020c 	and.w	r2, r2, #12
 8002a30:	2a04      	cmp	r2, #4
 8002a32:	d021      	beq.n	8002a78 <SystemCoreClockUpdate+0x50>
 8002a34:	2a08      	cmp	r2, #8
 8002a36:	d121      	bne.n	8002a7c <SystemCoreClockUpdate+0x54>
 8002a38:	6859      	ldr	r1, [r3, #4]
 8002a3a:	685a      	ldr	r2, [r3, #4]
 8002a3c:	685b      	ldr	r3, [r3, #4]
 8002a3e:	0249      	lsls	r1, r1, #9
 8002a40:	f3c3 1388 	ubfx	r3, r3, #6, #9
 8002a44:	bf4c      	ite	mi
 8002a46:	490f      	ldrmi	r1, [pc, #60]	@ (8002a84 <SystemCoreClockUpdate+0x5c>)
 8002a48:	490f      	ldrpl	r1, [pc, #60]	@ (8002a88 <SystemCoreClockUpdate+0x60>)
 8002a4a:	f002 023f 	and.w	r2, r2, #63	@ 0x3f
 8002a4e:	fbb1 f2f2 	udiv	r2, r1, r2
 8002a52:	4353      	muls	r3, r2
 8002a54:	4a0a      	ldr	r2, [pc, #40]	@ (8002a80 <SystemCoreClockUpdate+0x58>)
 8002a56:	6852      	ldr	r2, [r2, #4]
 8002a58:	f3c2 4201 	ubfx	r2, r2, #16, #2
 8002a5c:	3201      	adds	r2, #1
 8002a5e:	0052      	lsls	r2, r2, #1
 8002a60:	fbb3 f3f2 	udiv	r3, r3, r2
 8002a64:	4a06      	ldr	r2, [pc, #24]	@ (8002a80 <SystemCoreClockUpdate+0x58>)
 8002a66:	4909      	ldr	r1, [pc, #36]	@ (8002a8c <SystemCoreClockUpdate+0x64>)
 8002a68:	6892      	ldr	r2, [r2, #8]
 8002a6a:	f3c2 1203 	ubfx	r2, r2, #4, #4
 8002a6e:	5c8a      	ldrb	r2, [r1, r2]
 8002a70:	40d3      	lsrs	r3, r2
 8002a72:	4a07      	ldr	r2, [pc, #28]	@ (8002a90 <SystemCoreClockUpdate+0x68>)
 8002a74:	6013      	str	r3, [r2, #0]
 8002a76:	4770      	bx	lr
 8002a78:	4b02      	ldr	r3, [pc, #8]	@ (8002a84 <SystemCoreClockUpdate+0x5c>)
 8002a7a:	e7f3      	b.n	8002a64 <SystemCoreClockUpdate+0x3c>
 8002a7c:	4b02      	ldr	r3, [pc, #8]	@ (8002a88 <SystemCoreClockUpdate+0x60>)
 8002a7e:	e7f1      	b.n	8002a64 <SystemCoreClockUpdate+0x3c>
 8002a80:	40023800 	.word	0x40023800
 8002a84:	017d7840 	.word	0x017d7840
 8002a88:	00f42400 	.word	0x00f42400
 8002a8c:	08002b52 	.word	0x08002b52
 8002a90:	20000010 	.word	0x20000010

08002a94 <Reset_Handler>:
 8002a94:	480d      	ldr	r0, [pc, #52]	@ (8002acc <LoopForever+0x2>)
 8002a96:	4685      	mov	sp, r0
 8002a98:	f7ff ffbc 	bl	8002a14 <SystemInit>
 8002a9c:	480c      	ldr	r0, [pc, #48]	@ (8002ad0 <LoopForever+0x6>)
 8002a9e:	490d      	ldr	r1, [pc, #52]	@ (8002ad4 <LoopForever+0xa>)
 8002aa0:	4a0d      	ldr	r2, [pc, #52]	@ (8002ad8 <LoopForever+0xe>)
 8002aa2:	2300      	movs	r3, #0
 8002aa4:	e002      	b.n	8002aac <LoopCopyDataInit>

08002aa6 <CopyDataInit>:
 8002aa6:	58d4      	ldr	r4, [r2, r3]
 8002aa8:	50c4      	str	r4, [r0, r3]
 8002aaa:	3304      	adds	r3, #4

08002aac <LoopCopyDataInit>:
 8002aac:	18c4      	adds	r4, r0, r3
 8002aae:	428c      	cmp	r4, r1
 8002ab0:	d3f9      	bcc.n	8002aa6 <CopyDataInit>
 8002ab2:	4a0a      	ldr	r2, [pc, #40]	@ (8002adc <LoopForever+0x12>)
 8002ab4:	4c0a      	ldr	r4, [pc, #40]	@ (8002ae0 <LoopForever+0x16>)
 8002ab6:	2300      	movs	r3, #0
 8002ab8:	e001      	b.n	8002abe <LoopFillZerobss>

08002aba <FillZerobss>:
 8002aba:	6013      	str	r3, [r2, #0]
 8002abc:	3204      	adds	r2, #4

08002abe <LoopFillZerobss>:
 8002abe:	42a2      	cmp	r2, r4
 8002ac0:	d3fb      	bcc.n	8002aba <FillZerobss>
 8002ac2:	f000 f811 	bl	8002ae8 <__libc_init_array>
 8002ac6:	f7ff ff07 	bl	80028d8 <main>

08002aca <LoopForever>:
 8002aca:	e7fe      	b.n	8002aca <LoopForever>
 8002acc:	20020000 	.word	0x20020000
 8002ad0:	20000000 	.word	0x20000000
 8002ad4:	20000014 	.word	0x20000014
 8002ad8:	08002b6c 	.word	0x08002b6c
 8002adc:	20000014 	.word	0x20000014
 8002ae0:	200001a4 	.word	0x200001a4

08002ae4 <ADC_IRQHandler>:
 8002ae4:	e7fe      	b.n	8002ae4 <ADC_IRQHandler>
	...

08002ae8 <__libc_init_array>:
 8002ae8:	b570      	push	{r4, r5, r6, lr}
 8002aea:	4d0d      	ldr	r5, [pc, #52]	@ (8002b20 <__libc_init_array+0x38>)
 8002aec:	4c0d      	ldr	r4, [pc, #52]	@ (8002b24 <__libc_init_array+0x3c>)
 8002aee:	1b64      	subs	r4, r4, r5
 8002af0:	10a4      	asrs	r4, r4, #2
 8002af2:	2600      	movs	r6, #0
 8002af4:	42a6      	cmp	r6, r4
 8002af6:	d109      	bne.n	8002b0c <__libc_init_array+0x24>
 8002af8:	4d0b      	ldr	r5, [pc, #44]	@ (8002b28 <__libc_init_array+0x40>)
 8002afa:	4c0c      	ldr	r4, [pc, #48]	@ (8002b2c <__libc_init_array+0x44>)
 8002afc:	f000 f818 	bl	8002b30 <_init>
 8002b00:	1b64      	subs	r4, r4, r5
 8002b02:	10a4      	asrs	r4, r4, #2
 8002b04:	2600      	movs	r6, #0
 8002b06:	42a6      	cmp	r6, r4
 8002b08:	d105      	bne.n	8002b16 <__libc_init_array+0x2e>
 8002b0a:	bd70      	pop	{r4, r5, r6, pc}
 8002b0c:	f855 3b04 	ldr.w	r3, [r5], #4
 8002b10:	4798      	blx	r3
 8002b12:	3601      	adds	r6, #1
 8002b14:	e7ee      	b.n	8002af4 <__libc_init_array+0xc>
 8002b16:	f855 3b04 	ldr.w	r3, [r5], #4
 8002b1a:	4798      	blx	r3
 8002b1c:	3601      	adds	r6, #1
 8002b1e:	e7f2      	b.n	8002b06 <__libc_init_array+0x1e>
 8002b20:	08002b64 	.word	0x08002b64
 8002b24:	08002b64 	.word	0x08002b64
 8002b28:	08002b64 	.word	0x08002b64
 8002b2c:	08002b68 	.word	0x08002b68

08002b30 <_init>:
 8002b30:	b5f8      	push	{r3, r4, r5, r6, r7, lr}
 8002b32:	bf00      	nop
 8002b34:	bcf8      	pop	{r3, r4, r5, r6, r7}
 8002b36:	bc08      	pop	{r3}
 8002b38:	469e      	mov	lr, r3
 8002b3a:	4770      	bx	lr

08002b3c <_fini>:
 8002b3c:	b5f8      	push	{r3, r4, r5, r6, r7, lr}
 8002b3e:	bf00      	nop
 8002b40:	bcf8      	pop	{r3, r4, r5, r6, r7}
 8002b42:	bc08      	pop	{r3}
 8002b44:	469e      	mov	lr, r3
 8002b46:	4770      	bx	lr
